
./chall:     file format elf32-i386


Disassembly of section .text:
;start with key XXXXXXXXXXXXXXXXX (17 chars)

08048080 <_start>:
 8048080:	ba 0c 00 00 00       	mov    edx,0xc
 8048085:	b9 f0 d1 04 08       	mov    ecx,0x804d1f0
 804808a:	bb 01 00 00 00       	mov    ebx,0x1
 804808f:	b8 04 00 00 00       	mov    eax,0x4
 8048094:	cd 80                	int    0x80
 8048096:	ba 11 00 00 00       	mov    edx,0x11
 804809b:	b9 08 d2 04 08       	mov    ecx,0x804d208
 80480a0:	bb 00 00 00 00       	mov    ebx,0x0
 80480a5:	b8 03 00 00 00       	mov    eax,0x3
 80480aa:	cd 80                	int    0x80
 80480ac:	be 08 d2 04 08       	mov    esi,0x804d208
 80480b1:	80 7e 08 2d          	cmp    BYTE PTR [esi+0x8],0x2d			;'-' 9the byte = '-'?
 80480b5:	75 58                	jne    804810f <_start.fail>
 80480b7:	c6 46 08 00          	mov    BYTE PTR [esi+0x8],0x0			;make zero
 80480bb:	68 28 d2 04 08       	push   0x804d228
 80480c0:	68 08 d2 04 08       	push   0x804d208
 80480c5:	e8 20 01 00 00       	call   80481ea <parse_uint32_hex>
 80480ca:	83 f8 ff             	cmp    eax,0xffffffff
 80480cd:	74 40                	je     804810f <_start.fail>
 80480cf:	68 2c d2 04 08       	push   0x804d22c
 80480d4:	68 11 d2 04 08       	push   0x804d211
 80480d9:	e8 0c 01 00 00       	call   80481ea <parse_uint32_hex>
 80480de:	83 f8 ff             	cmp    eax,0xffffffff
 80480e1:	74 2c                	je     804810f <_start.fail>
 80480e3:	68 28 d2 04 08       	push   0x804d228
 80480e8:	e8 27 01 00 00       	call   8048214 <decipher>
 80480ed:	fc                   	cld    
 80480ee:	be 28 d2 04 08       	mov    esi,0x804d228
 80480f3:	ad                   	lods   eax,DWORD PTR ds:[esi]
 80480f4:	3d 43 53 41 57       	cmp    eax,0x57415343				;WASC
 80480f9:	75 14                	jne    804810f <_start.fail>
 80480fb:	ad                   	lods   eax,DWORD PTR ds:[esi]
 80480fc:	3d 48 41 48 41       	cmp    eax,0x41484148				;AHAH
 8048101:	75 0c                	jne    804810f <_start.fail>

08048103 <_start.pass>:
 8048103:	ba 05 00 00 00       	mov    edx,0x5
 8048108:	b9 fc d1 04 08       	mov    ecx,0x804d1fc
 804810d:	eb 0a                	jmp    8048119 <_start.done>

0804810f <_start.fail>:
 804810f:	ba 05 00 00 00       	mov    edx,0x5
 8048114:	b9 01 d2 04 08       	mov    ecx,0x804d201

08048119 <_start.done>:
 8048119:	bb 01 00 00 00       	mov    ebx,0x1
 804811e:	b8 04 00 00 00       	mov    eax,0x4
 8048123:	cd 80                	int    0x80
 8048125:	bb 00 00 00 00       	mov    ebx,0x0
 804812a:	b8 01 00 00 00       	mov    eax,0x1
 804812f:	cd 80                	int    0x80

08048131 <parse_nib>:
 8048131:	55                   	push   ebp
 8048132:	89 e5                	mov    ebp,esp
 8048134:	53                   	push   ebx
 8048135:	8b 45 08             	mov    eax,DWORD PTR [ebp+0x8]
 8048138:	8b 4d 0c             	mov    ecx,DWORD PTR [ebp+0xc]
 804813b:	8a 10                	mov    dl,BYTE PTR [eax]
 804813d:	8d 42 d0             	lea    eax,[edx-0x30]
 8048140:	3c 09                	cmp    al,0x9
 8048142:	77 04                	ja     8048148 <parse_nib.not_digit>

08048144 <parse_nib.digit>:
 8048144:	88 01                	mov    BYTE PTR [ecx],al
 8048146:	eb 1e                	jmp    8048166 <parse_nib.done_ok>

08048148 <parse_nib.not_digit>:
 8048148:	8d 42 9f             	lea    eax,[edx-0x61]
 804814b:	3c 05                	cmp    al,0x5
 804814d:	77 05                	ja     8048154 <parse_nib.not_lower>

0804814f <parse_nib.lower>:
 804814f:	83 ea 57             	sub    edx,0x57
 8048152:	eb 10                	jmp    8048164 <parse_nib.write_result>

08048154 <parse_nib.not_lower>:
 8048154:	8d 5a bf             	lea    ebx,[edx-0x41]
 8048157:	b8 ff ff ff ff       	mov    eax,0xffffffff
 804815c:	80 fb 05             	cmp    bl,0x5
 804815f:	77 07                	ja     8048168 <parse_nib.done>

08048161 <parse_nib.upper>:
 8048161:	83 ea 37             	sub    edx,0x37

08048164 <parse_nib.write_result>:
 8048164:	88 11                	mov    BYTE PTR [ecx],dl

08048166 <parse_nib.done_ok>:
 8048166:	31 c0                	xor    eax,eax

08048168 <parse_nib.done>:
 8048168:	5b                   	pop    ebx
 8048169:	5d                   	pop    ebp
 804816a:	c3                   	ret    

0804816b <parse_value_hex>:
 804816b:	55                   	push   ebp
 804816c:	89 e5                	mov    ebp,esp
 804816e:	57                   	push   edi
 804816f:	56                   	push   esi
 8048170:	53                   	push   ebx
 8048171:	83 ec 1c             	sub    esp,0x1c
 8048174:	8b 5d 08             	mov    ebx,DWORD PTR [ebp+0x8]
 8048177:	80 3b 30             	cmp    BYTE PTR [ebx],0x30
 804817a:	75 0d                	jne    8048189 <parse_value_hex.parse_56>
 804817c:	8a 43 01             	mov    al,BYTE PTR [ebx+0x1]
 804817f:	83 e0 df             	and    eax,0xffffffdf
 8048182:	3c 58                	cmp    al,0x58
 8048184:	75 03                	jne    8048189 <parse_value_hex.parse_56>
 8048186:	83 c3 02             	add    ebx,0x2

08048189 <parse_value_hex.parse_56>:
 8048189:	83 c8 ff             	or     eax,0xffffffff
 804818c:	80 3b 00             	cmp    BYTE PTR [ebx],0x0
 804818f:	74 51                	je     80481e2 <parse_value_hex.parse_af>
 8048191:	89 d9                	mov    ecx,ebx
 8048193:	31 f6                	xor    esi,esi
 8048195:	31 ff                	xor    edi,edi

08048197 <parse_value_hex.parse_64>:
 8048197:	89 c8                	mov    eax,ecx
 8048199:	29 d8                	sub    eax,ebx
 804819b:	3b 45 0c             	cmp    eax,DWORD PTR [ebp+0xc]
 804819e:	7d 38                	jge    80481d8 <parse_value_hex.parse_a5>
 80481a0:	80 39 00             	cmp    BYTE PTR [ecx],0x0
 80481a3:	74 33                	je     80481d8 <parse_value_hex.parse_a5>
 80481a5:	8d 45 ef             	lea    eax,[ebp-0x11]
 80481a8:	89 4d dc             	mov    DWORD PTR [ebp-0x24],ecx
 80481ab:	50                   	push   eax
 80481ac:	51                   	push   ecx
 80481ad:	e8 7f ff ff ff       	call   8048131 <parse_nib>
 80481b2:	8b 4d dc             	mov    ecx,DWORD PTR [ebp-0x24]
 80481b5:	5a                   	pop    edx
 80481b6:	5a                   	pop    edx
 80481b7:	41                   	inc    ecx
 80481b8:	85 c0                	test   eax,eax
 80481ba:	75 17                	jne    80481d3 <parse_value_hex.parse_a0>
 80481bc:	89 fa                	mov    edx,edi
 80481be:	89 f0                	mov    eax,esi
 80481c0:	31 ff                	xor    edi,edi
 80481c2:	0f a4 f2 04          	shld   edx,esi,0x4
 80481c6:	0f b6 75 ef          	movzx  esi,BYTE PTR [ebp-0x11]
 80481ca:	c1 e0 04             	shl    eax,0x4
 80481cd:	01 c6                	add    esi,eax
 80481cf:	11 d7                	adc    edi,edx
 80481d1:	eb c4                	jmp    8048197 <parse_value_hex.parse_64>

080481d3 <parse_value_hex.parse_a0>:
 80481d3:	83 c8 ff             	or     eax,0xffffffff
 80481d6:	eb 0a                	jmp    80481e2 <parse_value_hex.parse_af>

080481d8 <parse_value_hex.parse_a5>:
 80481d8:	8b 45 10             	mov    eax,DWORD PTR [ebp+0x10]
 80481db:	89 30                	mov    DWORD PTR [eax],esi
 80481dd:	89 78 04             	mov    DWORD PTR [eax+0x4],edi
 80481e0:	31 c0                	xor    eax,eax

080481e2 <parse_value_hex.parse_af>:
 80481e2:	8d 65 f4             	lea    esp,[ebp-0xc]
 80481e5:	5b                   	pop    ebx
 80481e6:	5e                   	pop    esi
 80481e7:	5f                   	pop    edi
 80481e8:	5d                   	pop    ebp
 80481e9:	c3                   	ret    

080481ea <parse_uint32_hex>:
 80481ea:	55                   	push   ebp
 80481eb:	89 e5                	mov    ebp,esp
 80481ed:	83 ec 14             	sub    esp,0x14
 80481f0:	8d 45 f8             	lea    eax,[ebp-0x8]
 80481f3:	50                   	push   eax
 80481f4:	6a 08                	push   0x8
 80481f6:	ff 75 08             	push   DWORD PTR [ebp+0x8]
 80481f9:	e8 6d ff ff ff       	call   804816b <parse_value_hex>
 80481fe:	83 c4 10             	add    esp,0x10
 8048201:	85 c0                	test   eax,eax
 8048203:	75 0a                	jne    804820f <parse_uint32_hex.parse_131>
 8048205:	8b 55 0c             	mov    edx,DWORD PTR [ebp+0xc]
 8048208:	8b 4d f8             	mov    ecx,DWORD PTR [ebp-0x8]
 804820b:	89 0a                	mov    DWORD PTR [edx],ecx
 804820d:	eb 03                	jmp    8048212 <parse_uint32_hex.parse_134>

0804820f <parse_uint32_hex.parse_131>:
 804820f:	83 c8 ff             	or     eax,0xffffffff

08048212 <parse_uint32_hex.parse_134>:
 8048212:	c9                   	leave  
 8048213:	c3                   	ret    

08048214 <decipher>:
 8048214:	55                   	push   ebp
 8048215:	89 e5                	mov    ebp,esp
 8048217:	56                   	push   esi
 8048218:	53                   	push   ebx
 8048219:	8b 4d 08             	mov    ecx,DWORD PTR [ebp+0x8]
 804821c:	8b 11                	mov    edx,DWORD PTR [ecx]
 804821e:	8b 71 04             	mov    esi,DWORD PTR [ecx+0x4]
 8048221:	89 d0                	mov    eax,edx
 8048223:	89 d3                	mov    ebx,edx
 8048225:	c1 eb 05             	shr    ebx,0x5
 8048228:	c1 e0 04             	shl    eax,0x4
 804822b:	31 d8                	xor    eax,ebx
 804822d:	01 d0                	add    eax,edx
 804822f:	35 0a 26 13 29       	xor    eax,0x2913260a
 8048234:	29 c6                	sub    esi,eax
 8048236:	89 f3                	mov    ebx,esi
 8048238:	89 f0                	mov    eax,esi
 804823a:	c1 ee 05             	shr    esi,0x5
 804823d:	c1 e3 04             	shl    ebx,0x4
 8048240:	31 f3                	xor    ebx,esi
 8048242:	01 c3                	add    ebx,eax
 8048244:	81 f3 6f dd db 37    	xor    ebx,0x37dbdd6f
 804824a:	29 da                	sub    edx,ebx
 804824c:	89 d3                	mov    ebx,edx
 804824e:	89 d6                	mov    esi,edx
 8048250:	c1 ee 05             	shr    esi,0x5
 8048253:	c1 e3 04             	shl    ebx,0x4
 8048256:	31 f3                	xor    ebx,esi
 8048258:	01 d3                	add    ebx,edx
 804825a:	81 f3 20 a8 2c 77    	xor    ebx,0x772ca820
 8048260:	29 d8                	sub    eax,ebx
 8048262:	89 c3                	mov    ebx,eax
 8048264:	89 c6                	mov    esi,eax
 8048266:	c1 ee 05             	shr    esi,0x5
 8048269:	c1 e3 04             	shl    ebx,0x4
 804826c:	31 f3                	xor    ebx,esi
 804826e:	01 c3                	add    ebx,eax
 8048270:	81 f3 67 2e f5 d8    	xor    ebx,0xd8f52e67
 8048276:	29 da                	sub    edx,ebx
 8048278:	89 d3                	mov    ebx,edx
 804827a:	89 d6                	mov    esi,edx
 804827c:	c1 ee 05             	shr    esi,0x5
 804827f:	c1 e3 04             	shl    ebx,0x4
 8048282:	31 f3                	xor    ebx,esi
 8048284:	01 d3                	add    ebx,edx
 8048286:	81 f3 b6 63 a4 99    	xor    ebx,0x99a463b6
 804828c:	29 d8                	sub    eax,ebx
 804828e:	89 c3                	mov    ebx,eax
 8048290:	89 c6                	mov    esi,eax
 8048292:	c1 ee 05             	shr    esi,0x5
 8048295:	c1 e3 04             	shl    ebx,0x4
 8048298:	31 f3                	xor    ebx,esi
 804829a:	01 c3                	add    ebx,eax
 804829c:	81 f3 df b8 6c 4e    	xor    ebx,0x4e6cb8df
 80482a2:	29 da                	sub    edx,ebx
 80482a4:	89 d3                	mov    ebx,edx
 80482a6:	89 d6                	mov    esi,edx
 80482a8:	c1 ee 05             	shr    esi,0x5
 80482ab:	c1 e3 04             	shl    ebx,0x4
 80482ae:	31 f3                	xor    ebx,esi
 80482b0:	01 d3                	add    ebx,edx
 80482b2:	81 f3 fd c9 92 30    	xor    ebx,0x3092c9fd
 80482b8:	29 d8                	sub    eax,ebx
 80482ba:	89 c3                	mov    ebx,eax
 80482bc:	89 c6                	mov    esi,eax
 80482be:	c1 ee 05             	shr    esi,0x5
 80482c1:	c1 e3 04             	shl    ebx,0x4
 80482c4:	31 f3                	xor    ebx,esi
 80482c6:	01 c3                	add    ebx,eax
 80482c8:	81 f3 44 50 5b 92    	xor    ebx,0x925b5044
 80482ce:	29 da                	sub    edx,ebx
 80482d0:	89 d3                	mov    ebx,edx
 80482d2:	89 d6                	mov    esi,edx
 80482d4:	c1 ee 05             	shr    esi,0x5
 80482d7:	c1 e3 04             	shl    ebx,0x4
 80482da:	31 f3                	xor    ebx,esi
 80482dc:	01 d3                	add    ebx,edx
 80482de:	81 f3 26 3f 35 b0    	xor    ebx,0xb0353f26
 80482e4:	29 d8                	sub    eax,ebx
 80482e6:	89 c3                	mov    ebx,eax
 80482e8:	89 c6                	mov    esi,eax
 80482ea:	c1 ee 05             	shr    esi,0x5
 80482ed:	c1 e3 04             	shl    ebx,0x4
 80482f0:	31 f3                	xor    ebx,esi
 80482f2:	01 c3                	add    ebx,eax
 80482f4:	81 f3 8b f6 fd be    	xor    ebx,0xbefdf68b
 80482fa:	29 da                	sub    edx,ebx
 80482fc:	89 d3                	mov    ebx,edx
 80482fe:	89 d6                	mov    esi,edx
 8048300:	c1 ee 05             	shr    esi,0x5
 8048303:	c1 e3 04             	shl    ebx,0x4
 8048306:	31 f3                	xor    ebx,esi
 8048308:	01 d3                	add    ebx,edx
 804830a:	81 f3 6d c5 fd 11    	xor    ebx,0x11fdc56d
 8048310:	29 d8                	sub    eax,ebx
 8048312:	89 c3                	mov    ebx,eax
 8048314:	89 c6                	mov    esi,eax
 8048316:	c1 ee 05             	shr    esi,0x5
 8048319:	c1 e3 04             	shl    ebx,0x4
 804831c:	31 f3                	xor    ebx,esi
 804831e:	01 c3                	add    ebx,eax
 8048320:	81 f3 83 47 17 60    	xor    ebx,0x60174783
 8048326:	29 da                	sub    edx,ebx
 8048328:	89 d3                	mov    ebx,edx
 804832a:	89 d6                	mov    esi,edx
 804832c:	c1 ee 05             	shr    esi,0x5
 804832f:	c1 e3 04             	shl    ebx,0x4
 8048332:	31 f3                	xor    ebx,esi
 8048334:	01 d3                	add    ebx,edx
 8048336:	81 f3 83 47 17 60    	xor    ebx,0x60174783
 804833c:	29 d8                	sub    eax,ebx
 804833e:	89 c3                	mov    ebx,eax
 8048340:	89 c6                	mov    esi,eax
 8048342:	c1 ee 05             	shr    esi,0x5
 8048345:	c1 e3 04             	shl    ebx,0x4
 8048348:	31 f3                	xor    ebx,esi
 804834a:	01 c3                	add    ebx,eax
 804834c:	81 f3 fb d1 8e d5    	xor    ebx,0xd58ed1fb
 8048352:	29 da                	sub    edx,ebx
 8048354:	89 d3                	mov    ebx,edx
 8048356:	89 d6                	mov    esi,edx
 8048358:	c1 ee 05             	shr    esi,0x5
 804835b:	c1 e3 04             	shl    ebx,0x4
 804835e:	31 f3                	xor    ebx,esi
 8048360:	01 d3                	add    ebx,edx
 8048362:	81 f3 19 03 8f 82    	xor    ebx,0x828f0319
 8048368:	29 d8                	sub    eax,ebx
 804836a:	89 c3                	mov    ebx,eax
 804836c:	89 c6                	mov    esi,eax
 804836e:	c1 ee 05             	shr    esi,0x5
 8048371:	c1 e3 04             	shl    ebx,0x4
 8048374:	31 f3                	xor    ebx,esi
 8048376:	01 c3                	add    ebx,eax
 8048378:	81 f3 60 69 7d 19    	xor    ebx,0x197d6960
 804837e:	29 da                	sub    edx,ebx
 8048380:	89 d3                	mov    ebx,edx
 8048382:	89 d6                	mov    esi,edx
 8048384:	c1 e3 04             	shl    ebx,0x4
 8048387:	c1 ee 05             	shr    esi,0x5
 804838a:	31 f3                	xor    ebx,esi
 804838c:	01 d3                	add    ebx,edx
 804838e:	81 f3 60 69 7d 19    	xor    ebx,0x197d6960
 8048394:	29 d8                	sub    eax,ebx
 8048396:	89 c3                	mov    ebx,eax
 8048398:	89 c6                	mov    esi,eax
 804839a:	c1 ee 05             	shr    esi,0x5
 804839d:	c1 e3 04             	shl    ebx,0x4
 80483a0:	31 f3                	xor    ebx,esi
 80483a2:	01 c3                	add    ebx,eax
 80483a4:	81 f3 a7 0f 20 46    	xor    ebx,0x46200fa7
 80483aa:	29 da                	sub    edx,ebx
 80483ac:	89 d3                	mov    ebx,edx
 80483ae:	89 d6                	mov    esi,edx
 80483b0:	c1 ee 05             	shr    esi,0x5
 80483b3:	c1 e3 04             	shl    ebx,0x4
 80483b6:	31 f3                	xor    ebx,esi
 80483b8:	01 d3                	add    ebx,edx
 80483ba:	81 f3 a7 ef 45 7b    	xor    ebx,0x7b45efa7
 80483c0:	29 d8                	sub    eax,ebx
 80483c2:	89 c3                	mov    ebx,eax
 80483c4:	89 c6                	mov    esi,eax
 80483c6:	c1 ee 05             	shr    esi,0x5
 80483c9:	c1 e3 04             	shl    ebx,0x4
 80483cc:	31 f3                	xor    ebx,esi
 80483ce:	01 c3                	add    ebx,eax
 80483d0:	81 f3 9f 60 39 e7    	xor    ebx,0xe739609f
 80483d6:	29 da                	sub    edx,ebx
 80483d8:	89 d3                	mov    ebx,edx
 80483da:	89 d6                	mov    esi,edx
 80483dc:	c1 ee 05             	shr    esi,0x5
 80483df:	c1 e3 04             	shl    ebx,0x4
 80483e2:	31 f3                	xor    ebx,esi
 80483e4:	01 d3                	add    ebx,edx
 80483e6:	81 f3 d0 64 e8 fa    	xor    ebx,0xfae864d0
 80483ec:	29 d8                	sub    eax,ebx
 80483ee:	89 c3                	mov    ebx,eax
 80483f0:	89 c6                	mov    esi,eax
 80483f2:	c1 ee 05             	shr    esi,0x5
 80483f5:	c1 e3 04             	shl    ebx,0x4
 80483f8:	31 f3                	xor    ebx,esi
 80483fa:	01 c3                	add    ebx,eax
 80483fc:	81 f3 17 eb b0 5c    	xor    ebx,0x5cb0eb17
 8048402:	29 da                	sub    edx,ebx
 8048404:	89 d3                	mov    ebx,edx
 8048406:	89 d6                	mov    esi,edx
 8048408:	c1 ee 05             	shr    esi,0x5
 804840b:	c1 e3 04             	shl    ebx,0x4
 804840e:	31 f3                	xor    ebx,esi
 8048410:	01 d3                	add    ebx,edx
 8048412:	81 f3 e6 e6 01 49    	xor    ebx,0x4901e6e6
 8048418:	29 d8                	sub    eax,ebx
 804841a:	89 c3                	mov    ebx,eax
 804841c:	89 c6                	mov    esi,eax
 804841e:	c1 ee 05             	shr    esi,0x5
 8048421:	c1 e3 04             	shl    ebx,0x4
 8048424:	31 f3                	xor    ebx,esi
 8048426:	01 c3                	add    ebx,eax
 8048428:	81 f3 7c 82 9f a0    	xor    ebx,0xa09f827c
 804842e:	29 da                	sub    edx,ebx
 8048430:	89 d3                	mov    ebx,edx
 8048432:	89 d6                	mov    esi,edx
 8048434:	c1 ee 05             	shr    esi,0x5
 8048437:	c1 e3 04             	shl    ebx,0x4
 804843a:	31 f3                	xor    ebx,esi
 804843c:	01 d3                	add    ebx,edx
 804843e:	81 f3 7c a2 79 6b    	xor    ebx,0x6b79a27c
 8048444:	29 d8                	sub    eax,ebx
 8048446:	89 c3                	mov    ebx,eax
 8048448:	89 c6                	mov    esi,eax
 804844a:	c1 ee 05             	shr    esi,0x5
 804844d:	c1 e3 04             	shl    ebx,0x4
 8048450:	31 f3                	xor    ebx,esi
 8048452:	01 c3                	add    ebx,eax
 8048454:	81 f3 c3 28 42 cd    	xor    ebx,0xcd4228c3
 804845a:	29 da                	sub    edx,ebx
 804845c:	89 d3                	mov    ebx,edx
 804845e:	89 d6                	mov    esi,edx
 8048460:	c1 ee 05             	shr    esi,0x5
 8048463:	c1 e3 04             	shl    ebx,0x4
 8048466:	31 f3                	xor    ebx,esi
 8048468:	01 d3                	add    ebx,edx
 804846a:	81 f3 c3 08 68 02    	xor    ebx,0x26808c3
 8048470:	29 d8                	sub    eax,ebx
 8048472:	89 c3                	mov    ebx,eax
 8048474:	89 c6                	mov    esi,eax
 8048476:	c1 ee 05             	shr    esi,0x5
 8048479:	c1 e3 04             	shl    ebx,0x4
 804847c:	31 f3                	xor    ebx,esi
 804847e:	01 c3                	add    ebx,eax
 8048480:	81 f3 bb 79 5b 6e    	xor    ebx,0x6e5b79bb
 8048486:	29 da                	sub    edx,ebx
 8048488:	89 d3                	mov    ebx,edx
 804848a:	89 d6                	mov    esi,edx
 804848c:	c1 ee 05             	shr    esi,0x5
 804848f:	c1 e3 04             	shl    ebx,0x4
 8048492:	31 f3                	xor    ebx,esi
 8048494:	01 d3                	add    ebx,edx
 8048496:	81 f3 0a 8f 30 64    	xor    ebx,0x64308f0a
 804849c:	29 d8                	sub    eax,ebx
 804849e:	89 c3                	mov    ebx,eax
 80484a0:	89 c6                	mov    esi,eax
 80484a2:	c1 ee 05             	shr    esi,0x5
 80484a5:	c1 e3 04             	shl    ebx,0x4
 80484a8:	31 f3                	xor    ebx,esi
 80484aa:	01 c3                	add    ebx,eax
 80484ac:	81 f3 33 04 d3 e3    	xor    ebx,0xe3d30433
 80484b2:	29 da                	sub    edx,ebx
 80484b4:	89 d3                	mov    ebx,edx
 80484b6:	89 d6                	mov    esi,edx
 80484b8:	c1 ee 05             	shr    esi,0x5
 80484bb:	c1 e3 04             	shl    ebx,0x4
 80484be:	31 f3                	xor    ebx,esi
 80484c0:	01 d3                	add    ebx,edx
 80484c2:	81 f3 33 04 d3 e3    	xor    ebx,0xe3d30433
 80484c8:	29 d8                	sub    eax,ebx
 80484ca:	89 c3                	mov    ebx,eax
 80484cc:	89 c6                	mov    esi,eax
 80484ce:	c1 ee 05             	shr    esi,0x5
 80484d1:	c1 e3 04             	shl    ebx,0x4
 80484d4:	31 f3                	xor    ebx,esi
 80484d6:	01 c3                	add    ebx,eax
 80484d8:	81 f3 98 9b c1 27    	xor    ebx,0x27c19b98
 80484de:	29 da                	sub    edx,ebx
 80484e0:	89 d3                	mov    ebx,edx
 80484e2:	89 d6                	mov    esi,edx
 80484e4:	c1 e3 04             	shl    ebx,0x4
 80484e7:	c1 ee 05             	shr    esi,0x5
 80484ea:	31 f3                	xor    ebx,esi
 80484ec:	01 d3                	add    ebx,edx
 80484ee:	81 f3 49 86 ec 31    	xor    ebx,0x31ec8649
 80484f4:	29 d8                	sub    eax,ebx
 80484f6:	89 c3                	mov    ebx,eax
 80484f8:	89 c6                	mov    esi,eax
 80484fa:	c1 ee 05             	shr    esi,0x5
 80484fd:	c1 e3 04             	shl    ebx,0x4
 8048500:	31 f3                	xor    ebx,esi
 8048502:	01 c3                	add    ebx,eax
 8048504:	81 f3 df 41 64 54    	xor    ebx,0x546441df
 804850a:	29 da                	sub    edx,ebx
 804850c:	89 d3                	mov    ebx,edx
 804850e:	89 d6                	mov    esi,edx
 8048510:	c1 ee 05             	shr    esi,0x5
 8048513:	c1 e3 04             	shl    ebx,0x4
 8048516:	31 f3                	xor    ebx,esi
 8048518:	01 d3                	add    ebx,edx
 804851a:	81 f3 df 41 64 54    	xor    ebx,0x546441df
 8048520:	29 d8                	sub    eax,ebx
 8048522:	89 c3                	mov    ebx,eax
 8048524:	89 c6                	mov    esi,eax
 8048526:	c1 ee 05             	shr    esi,0x5
 8048529:	c1 e3 04             	shl    ebx,0x4
 804852c:	31 f3                	xor    ebx,esi
 804852e:	01 c3                	add    ebx,eax
 8048530:	81 f3 d7 92 7d f5    	xor    ebx,0xf57d92d7
 8048536:	29 da                	sub    edx,ebx
 8048538:	89 d3                	mov    ebx,edx
 804853a:	89 d6                	mov    esi,edx
 804853c:	c1 ee 05             	shr    esi,0x5
 804853f:	c1 e3 04             	shl    ebx,0x4
 8048542:	31 f3                	xor    ebx,esi
 8048544:	01 d3                	add    ebx,edx
 8048546:	81 f3 26 a8 52 eb    	xor    ebx,0xeb52a826
 804854c:	29 d8                	sub    eax,ebx
 804854e:	89 c3                	mov    ebx,eax
 8048550:	89 c6                	mov    esi,eax
 8048552:	c1 ee 05             	shr    esi,0x5
 8048555:	c1 e3 04             	shl    ebx,0x4
 8048558:	31 f3                	xor    ebx,esi
 804855a:	01 c3                	add    ebx,eax
 804855c:	81 f3 4f 1d f5 6a    	xor    ebx,0x6af51d4f
 8048562:	29 da                	sub    edx,ebx
 8048564:	89 d3                	mov    ebx,edx
 8048566:	89 d6                	mov    esi,edx
 8048568:	c1 ee 05             	shr    esi,0x5
 804856b:	c1 e3 04             	shl    ebx,0x4
 804856e:	31 f3                	xor    ebx,esi
 8048570:	01 d3                	add    ebx,edx
 8048572:	81 f3 6d 2e 1b 4d    	xor    ebx,0x4d1b2e6d
 8048578:	29 d8                	sub    eax,ebx
 804857a:	89 c3                	mov    ebx,eax
 804857c:	89 c6                	mov    esi,eax
 804857e:	c1 ee 05             	shr    esi,0x5
 8048581:	c1 e3 04             	shl    ebx,0x4
 8048584:	31 f3                	xor    ebx,esi
 8048586:	01 c3                	add    ebx,eax
 8048588:	81 f3 b4 b4 e3 ae    	xor    ebx,0xaee3b4b4
 804858e:	29 da                	sub    edx,ebx
 8048590:	89 d3                	mov    ebx,edx
 8048592:	89 d6                	mov    esi,edx
 8048594:	c1 ee 05             	shr    esi,0x5
 8048597:	c1 e3 04             	shl    ebx,0x4
 804859a:	31 f3                	xor    ebx,esi
 804859c:	01 d3                	add    ebx,edx
 804859e:	81 f3 96 a3 bd cc    	xor    ebx,0xccbda396
 80485a4:	29 d8                	sub    eax,ebx
 80485a6:	89 c3                	mov    ebx,eax
 80485a8:	89 c6                	mov    esi,eax
 80485aa:	c1 ee 05             	shr    esi,0x5
 80485ad:	c1 e3 04             	shl    ebx,0x4
 80485b0:	31 f3                	xor    ebx,esi
 80485b2:	01 c3                	add    ebx,eax
 80485b4:	81 f3 fb 5a 86 db    	xor    ebx,0xdb865afb
 80485ba:	29 da                	sub    edx,ebx
 80485bc:	89 d3                	mov    ebx,edx
 80485be:	89 d6                	mov    esi,edx
 80485c0:	c1 ee 05             	shr    esi,0x5
 80485c3:	c1 e3 04             	shl    ebx,0x4
 80485c6:	31 f3                	xor    ebx,esi
 80485c8:	01 d3                	add    ebx,edx
 80485ca:	81 f3 ac 25 d7 1a    	xor    ebx,0x1ad725ac
 80485d0:	29 d8                	sub    eax,ebx
 80485d2:	89 c3                	mov    ebx,eax
 80485d4:	89 c6                	mov    esi,eax
 80485d6:	c1 ee 05             	shr    esi,0x5
 80485d9:	c1 e3 04             	shl    ebx,0x4
 80485dc:	31 f3                	xor    ebx,esi
 80485de:	01 c3                	add    ebx,eax
 80485e0:	81 f3 f3 ab 9f 7c    	xor    ebx,0x7c9fabf3
 80485e6:	29 da                	sub    edx,ebx
 80485e8:	89 d3                	mov    ebx,edx
 80485ea:	89 d6                	mov    esi,edx
 80485ec:	c1 ee 05             	shr    esi,0x5
 80485ef:	c1 e3 04             	shl    ebx,0x4
 80485f2:	31 f3                	xor    ebx,esi
 80485f4:	01 d3                	add    ebx,edx
 80485f6:	81 f3 42 e1 4e 3d    	xor    ebx,0x3d4ee142
 80485fc:	29 d8                	sub    eax,ebx
 80485fe:	89 c3                	mov    ebx,eax
 8048600:	89 c6                	mov    esi,eax
 8048602:	c1 ee 05             	shr    esi,0x5
 8048605:	c1 e3 04             	shl    ebx,0x4
 8048608:	31 f3                	xor    ebx,esi
 804860a:	01 c3                	add    ebx,eax
 804860c:	81 f3 6b 36 17 f2    	xor    ebx,0xf217366b
 8048612:	29 da                	sub    edx,ebx
 8048614:	89 d3                	mov    ebx,edx
 8048616:	89 d6                	mov    esi,edx
 8048618:	c1 ee 05             	shr    esi,0x5
 804861b:	c1 e3 04             	shl    ebx,0x4
 804861e:	31 f3                	xor    ebx,esi
 8048620:	01 d3                	add    ebx,edx
 8048622:	81 f3 89 67 17 9f    	xor    ebx,0x9f176789
 8048628:	29 d8                	sub    eax,ebx
 804862a:	89 c3                	mov    ebx,eax
 804862c:	89 c6                	mov    esi,eax
 804862e:	c1 ee 05             	shr    esi,0x5
 8048631:	c1 e3 04             	shl    ebx,0x4
 8048634:	31 f3                	xor    ebx,esi
 8048636:	01 c3                	add    ebx,eax
 8048638:	81 f3 d0 cd 05 36    	xor    ebx,0x3605cdd0
 804863e:	29 da                	sub    edx,ebx
 8048640:	89 d3                	mov    ebx,edx
 8048642:	89 d6                	mov    esi,edx
 8048644:	c1 e3 04             	shl    ebx,0x4
 8048647:	c1 ee 05             	shr    esi,0x5
 804864a:	31 f3                	xor    ebx,esi
 804864c:	01 d3                	add    ebx,edx
 804864e:	81 f3 d0 cd 05 36    	xor    ebx,0x3605cdd0
 8048654:	29 d8                	sub    eax,ebx
 8048656:	89 c3                	mov    ebx,eax
 8048658:	89 c6                	mov    esi,eax
 804865a:	c1 ee 05             	shr    esi,0x5
 804865d:	c1 e3 04             	shl    ebx,0x4
 8048660:	31 f3                	xor    ebx,esi
 8048662:	01 c3                	add    ebx,eax
 8048664:	81 f3 17 74 a8 62    	xor    ebx,0x62a87417
 804866a:	29 da                	sub    edx,ebx
 804866c:	89 d3                	mov    ebx,edx
 804866e:	89 d6                	mov    esi,edx
 8048670:	c1 ee 05             	shr    esi,0x5
 8048673:	c1 e3 04             	shl    ebx,0x4
 8048676:	31 f3                	xor    ebx,esi
 8048678:	01 d3                	add    ebx,edx
 804867a:	81 f3 f9 42 a8 b5    	xor    ebx,0xb5a842f9
 8048680:	29 d8                	sub    eax,ebx
 8048682:	89 c3                	mov    ebx,eax
 8048684:	89 c6                	mov    esi,eax
 8048686:	c1 ee 05             	shr    esi,0x5
 8048689:	c1 e3 04             	shl    ebx,0x4
 804868c:	31 f3                	xor    ebx,esi
 804868e:	01 c3                	add    ebx,eax
 8048690:	81 f3 0f c5 c1 03    	xor    ebx,0x3c1c50f
 8048696:	29 da                	sub    edx,ebx
 8048698:	89 d3                	mov    ebx,edx
 804869a:	89 d6                	mov    esi,edx
 804869c:	c1 ee 05             	shr    esi,0x5
 804869f:	c1 e3 04             	shl    ebx,0x4
 80486a2:	31 f3                	xor    ebx,esi
 80486a4:	01 d3                	add    ebx,edx
 80486a6:	81 f3 0f c5 c1 03    	xor    ebx,0x3c1c50f
 80486ac:	29 d8                	sub    eax,ebx
 80486ae:	89 c3                	mov    ebx,eax
 80486b0:	89 c6                	mov    esi,eax
 80486b2:	c1 ee 05             	shr    esi,0x5
 80486b5:	c1 e3 04             	shl    ebx,0x4
 80486b8:	31 f3                	xor    ebx,esi
 80486ba:	01 c3                	add    ebx,eax
 80486bc:	81 f3 87 4f 39 79    	xor    ebx,0x79394f87
 80486c2:	29 da                	sub    edx,ebx
 80486c4:	89 d3                	mov    ebx,edx
 80486c6:	89 d6                	mov    esi,edx
 80486c8:	c1 ee 05             	shr    esi,0x5
 80486cb:	c1 e3 04             	shl    ebx,0x4
 80486ce:	31 f3                	xor    ebx,esi
 80486d0:	01 d3                	add    ebx,edx
 80486d2:	81 f3 a5 80 39 26    	xor    ebx,0x263980a5
 80486d8:	29 d8                	sub    eax,ebx
 80486da:	89 c3                	mov    ebx,eax
 80486dc:	89 c6                	mov    esi,eax
 80486de:	c1 ee 05             	shr    esi,0x5
 80486e1:	c1 e3 04             	shl    ebx,0x4
 80486e4:	31 f3                	xor    ebx,esi
 80486e6:	01 c3                	add    ebx,eax
 80486e8:	81 f3 ec e6 27 bd    	xor    ebx,0xbd27e6ec
 80486ee:	29 da                	sub    edx,ebx
 80486f0:	89 d3                	mov    ebx,edx
 80486f2:	89 d6                	mov    esi,edx
 80486f4:	c1 ee 05             	shr    esi,0x5
 80486f7:	c1 e3 04             	shl    ebx,0x4
 80486fa:	31 f3                	xor    ebx,esi
 80486fc:	01 d3                	add    ebx,edx
 80486fe:	81 f3 ec 06 02 88    	xor    ebx,0x880206ec
 8048704:	29 d8                	sub    eax,ebx
 8048706:	89 c3                	mov    ebx,eax
 8048708:	89 c6                	mov    esi,eax
 804870a:	c1 ee 05             	shr    esi,0x5
 804870d:	c1 e3 04             	shl    ebx,0x4
 8048710:	31 f3                	xor    ebx,esi
 8048712:	01 c3                	add    ebx,eax
 8048714:	81 f3 33 8d ca e9    	xor    ebx,0xe9ca8d33
 804871a:	29 da                	sub    edx,ebx
 804871c:	89 d3                	mov    ebx,edx
 804871e:	89 d6                	mov    esi,edx
 8048720:	c1 ee 05             	shr    esi,0x5
 8048723:	c1 e3 04             	shl    ebx,0x4
 8048726:	31 f3                	xor    ebx,esi
 8048728:	01 d3                	add    ebx,edx
 804872a:	81 f3 33 6d f0 1e    	xor    ebx,0x1ef06d33
 8048730:	29 d8                	sub    eax,ebx
 8048732:	89 c3                	mov    ebx,eax
 8048734:	89 c6                	mov    esi,eax
 8048736:	c1 ee 05             	shr    esi,0x5
 8048739:	c1 e3 04             	shl    ebx,0x4
 804873c:	31 f3                	xor    ebx,esi
 804873e:	01 c3                	add    ebx,eax
 8048740:	81 f3 2b de e3 8a    	xor    ebx,0x8ae3de2b
 8048746:	29 da                	sub    edx,ebx
 8048748:	89 d3                	mov    ebx,edx
 804874a:	89 d6                	mov    esi,edx
 804874c:	c1 ee 05             	shr    esi,0x5
 804874f:	c1 e3 04             	shl    ebx,0x4
 8048752:	31 f3                	xor    ebx,esi
 8048754:	01 d3                	add    ebx,edx
 8048756:	81 f3 5c e2 92 9e    	xor    ebx,0x9e92e25c
 804875c:	29 d8                	sub    eax,ebx
 804875e:	89 c3                	mov    ebx,eax
 8048760:	89 c6                	mov    esi,eax
 8048762:	c1 ee 05             	shr    esi,0x5
 8048765:	c1 e3 04             	shl    ebx,0x4
 8048768:	31 f3                	xor    ebx,esi
 804876a:	01 c3                	add    ebx,eax
 804876c:	81 f3 a3 68 5b 00    	xor    ebx,0x5b68a3
 8048772:	29 da                	sub    edx,ebx
 8048774:	89 d3                	mov    ebx,edx
 8048776:	89 d6                	mov    esi,edx
 8048778:	c1 ee 05             	shr    esi,0x5
 804877b:	c1 e3 04             	shl    ebx,0x4
 804877e:	31 f3                	xor    ebx,esi
 8048780:	01 d3                	add    ebx,edx
 8048782:	81 f3 72 64 ac ec    	xor    ebx,0xecac6472
 8048788:	29 d8                	sub    eax,ebx
 804878a:	89 c3                	mov    ebx,eax
 804878c:	89 c6                	mov    esi,eax
 804878e:	c1 ee 05             	shr    esi,0x5
 8048791:	c1 e3 04             	shl    ebx,0x4
 8048794:	31 f3                	xor    ebx,esi
 8048796:	01 c3                	add    ebx,eax
 8048798:	81 f3 08 00 4a 44    	xor    ebx,0x444a0008
 804879e:	29 da                	sub    edx,ebx
 80487a0:	89 d3                	mov    ebx,edx
 80487a2:	89 d6                	mov    esi,edx
 80487a4:	c1 e3 04             	shl    ebx,0x4
 80487a7:	c1 ee 05             	shr    esi,0x5
 80487aa:	31 f3                	xor    ebx,esi
 80487ac:	01 d3                	add    ebx,edx
 80487ae:	81 f3 b9 ea 74 4e    	xor    ebx,0x4e74eab9
 80487b4:	29 d8                	sub    eax,ebx
 80487b6:	89 c3                	mov    ebx,eax
 80487b8:	89 c6                	mov    esi,eax
 80487ba:	c1 ee 05             	shr    esi,0x5
 80487bd:	c1 e3 04             	shl    ebx,0x4
 80487c0:	31 f3                	xor    ebx,esi
 80487c2:	01 c3                	add    ebx,eax
 80487c4:	81 f3 4f a6 ec 70    	xor    ebx,0x70eca64f
 80487ca:	29 da                	sub    edx,ebx
 80487cc:	89 d3                	mov    ebx,edx
 80487ce:	89 d6                	mov    esi,edx
 80487d0:	c1 ee 05             	shr    esi,0x5
 80487d3:	c1 e3 04             	shl    ebx,0x4
 80487d6:	31 f3                	xor    ebx,esi
 80487d8:	01 d3                	add    ebx,edx
 80487da:	81 f3 4f a6 ec 70    	xor    ebx,0x70eca64f
 80487e0:	29 d8                	sub    eax,ebx
 80487e2:	89 c3                	mov    ebx,eax
 80487e4:	89 c6                	mov    esi,eax
 80487e6:	c1 ee 05             	shr    esi,0x5
 80487e9:	c1 e3 04             	shl    ebx,0x4
 80487ec:	31 f3                	xor    ebx,esi
 80487ee:	01 c3                	add    ebx,eax
 80487f0:	81 f3 47 f7 05 12    	xor    ebx,0x1205f747
 80487f6:	29 da                	sub    edx,ebx
 80487f8:	89 d3                	mov    ebx,edx
 80487fa:	89 d6                	mov    esi,edx
 80487fc:	c1 ee 05             	shr    esi,0x5
 80487ff:	c1 e3 04             	shl    ebx,0x4
 8048802:	31 f3                	xor    ebx,esi
 8048804:	01 d3                	add    ebx,edx
 8048806:	81 f3 96 0c db 07    	xor    ebx,0x7db0c96
 804880c:	29 d8                	sub    eax,ebx
 804880e:	89 c3                	mov    ebx,eax
 8048810:	89 c6                	mov    esi,eax
 8048812:	c1 ee 05             	shr    esi,0x5
 8048815:	c1 e3 04             	shl    ebx,0x4
 8048818:	31 f3                	xor    ebx,esi
 804881a:	01 c3                	add    ebx,eax
 804881c:	81 f3 bf 81 7d 87    	xor    ebx,0x877d81bf
 8048822:	29 da                	sub    edx,ebx
 8048824:	89 d3                	mov    ebx,edx
 8048826:	89 d6                	mov    esi,edx
 8048828:	c1 ee 05             	shr    esi,0x5
 804882b:	c1 e3 04             	shl    ebx,0x4
 804882e:	31 f3                	xor    ebx,esi
 8048830:	01 d3                	add    ebx,edx
 8048832:	81 f3 bf 81 7d 87    	xor    ebx,0x877d81bf
 8048838:	29 d8                	sub    eax,ebx
 804883a:	89 c3                	mov    ebx,eax
 804883c:	89 c6                	mov    esi,eax
 804883e:	c1 ee 05             	shr    esi,0x5
 8048841:	c1 e3 04             	shl    ebx,0x4
 8048844:	31 f3                	xor    ebx,esi
 8048846:	01 c3                	add    ebx,eax
 8048848:	81 f3 24 19 6c cb    	xor    ebx,0xcb6c1924
 804884e:	29 da                	sub    edx,ebx
 8048850:	89 d3                	mov    ebx,edx
 8048852:	89 d6                	mov    esi,edx
 8048854:	c1 ee 05             	shr    esi,0x5
 8048857:	c1 e3 04             	shl    ebx,0x4
 804885a:	31 f3                	xor    ebx,esi
 804885c:	01 d3                	add    ebx,edx
 804885e:	81 f3 d5 03 97 d5    	xor    ebx,0xd59703d5
 8048864:	29 d8                	sub    eax,ebx
 8048866:	89 c3                	mov    ebx,eax
 8048868:	89 c6                	mov    esi,eax
 804886a:	c1 ee 05             	shr    esi,0x5
 804886d:	c1 e3 04             	shl    ebx,0x4
 8048870:	31 f3                	xor    ebx,esi
 8048872:	01 c3                	add    ebx,eax
 8048874:	81 f3 6b bf 0e f8    	xor    ebx,0xf80ebf6b
 804887a:	29 da                	sub    edx,ebx
 804887c:	89 d3                	mov    ebx,edx
 804887e:	89 d6                	mov    esi,edx
 8048880:	c1 ee 05             	shr    esi,0x5
 8048883:	c1 e3 04             	shl    ebx,0x4
 8048886:	31 f3                	xor    ebx,esi
 8048888:	01 d3                	add    ebx,edx
 804888a:	81 f3 1c 8a 5f 37    	xor    ebx,0x375f8a1c
 8048890:	29 d8                	sub    eax,ebx
 8048892:	89 c3                	mov    ebx,eax
 8048894:	89 c6                	mov    esi,eax
 8048896:	c1 ee 05             	shr    esi,0x5
 8048899:	c1 e3 04             	shl    ebx,0x4
 804889c:	31 f3                	xor    ebx,esi
 804889e:	01 c3                	add    ebx,eax
 80488a0:	81 f3 63 10 28 99    	xor    ebx,0x99281063
 80488a6:	29 da                	sub    edx,ebx
 80488a8:	89 d3                	mov    ebx,edx
 80488aa:	89 d6                	mov    esi,edx
 80488ac:	c1 ee 05             	shr    esi,0x5
 80488af:	c1 e3 04             	shl    ebx,0x4
 80488b2:	31 f3                	xor    ebx,esi
 80488b4:	01 d3                	add    ebx,edx
 80488b6:	81 f3 b2 45 d7 59    	xor    ebx,0x59d745b2
 80488bc:	29 d8                	sub    eax,ebx
 80488be:	89 c3                	mov    ebx,eax
 80488c0:	89 c6                	mov    esi,eax
 80488c2:	c1 ee 05             	shr    esi,0x5
 80488c5:	c1 e3 04             	shl    ebx,0x4
 80488c8:	31 f3                	xor    ebx,esi
 80488ca:	01 c3                	add    ebx,eax
 80488cc:	81 f3 db 9a 9f 0e    	xor    ebx,0xe9f9adb
 80488d2:	29 da                	sub    edx,ebx
 80488d4:	89 d3                	mov    ebx,edx
 80488d6:	89 d6                	mov    esi,edx
 80488d8:	c1 ee 05             	shr    esi,0x5
 80488db:	c1 e3 04             	shl    ebx,0x4
 80488de:	31 f3                	xor    ebx,esi
 80488e0:	01 d3                	add    ebx,edx
 80488e2:	81 f3 f9 ab c5 f0    	xor    ebx,0xf0c5abf9
 80488e8:	29 d8                	sub    eax,ebx
 80488ea:	89 c3                	mov    ebx,eax
 80488ec:	89 c6                	mov    esi,eax
 80488ee:	c1 ee 05             	shr    esi,0x5
 80488f1:	c1 e3 04             	shl    ebx,0x4
 80488f4:	31 f3                	xor    ebx,esi
 80488f6:	01 c3                	add    ebx,eax
 80488f8:	81 f3 40 32 8e 52    	xor    ebx,0x528e3240
 80488fe:	29 da                	sub    edx,ebx
 8048900:	89 d3                	mov    ebx,edx
 8048902:	89 d6                	mov    esi,edx
 8048904:	c1 e3 04             	shl    ebx,0x4
 8048907:	c1 ee 05             	shr    esi,0x5
 804890a:	31 f3                	xor    ebx,esi
 804890c:	01 d3                	add    ebx,edx
 804890e:	81 f3 22 21 68 70    	xor    ebx,0x70682122
 8048914:	29 d8                	sub    eax,ebx
 8048916:	89 c3                	mov    ebx,eax
 8048918:	89 c6                	mov    esi,eax
 804891a:	c1 ee 05             	shr    esi,0x5
 804891d:	c1 e3 04             	shl    ebx,0x4
 8048920:	31 f3                	xor    ebx,esi
 8048922:	01 c3                	add    ebx,eax
 8048924:	81 f3 87 d8 30 7f    	xor    ebx,0x7f30d887
 804892a:	29 da                	sub    edx,ebx
 804892c:	89 d3                	mov    ebx,edx
 804892e:	89 d6                	mov    esi,edx
 8048930:	c1 ee 05             	shr    esi,0x5
 8048933:	c1 e3 04             	shl    ebx,0x4
 8048936:	31 f3                	xor    ebx,esi
 8048938:	01 d3                	add    ebx,edx
 804893a:	81 f3 38 a3 81 be    	xor    ebx,0xbe81a338
 8048940:	29 d8                	sub    eax,ebx
 8048942:	89 c3                	mov    ebx,eax
 8048944:	89 c6                	mov    esi,eax
 8048946:	c1 ee 05             	shr    esi,0x5
 8048949:	c1 e3 04             	shl    ebx,0x4
 804894c:	31 f3                	xor    ebx,esi
 804894e:	01 c3                	add    ebx,eax
 8048950:	81 f3 7f 29 4a 20    	xor    ebx,0x204a297f
 8048956:	29 da                	sub    edx,ebx
 8048958:	89 d3                	mov    ebx,edx
 804895a:	89 d6                	mov    esi,edx
 804895c:	c1 ee 05             	shr    esi,0x5
 804895f:	c1 e3 04             	shl    ebx,0x4
 8048962:	31 f3                	xor    ebx,esi
 8048964:	01 d3                	add    ebx,edx
 8048966:	81 f3 7f 29 4a 20    	xor    ebx,0x204a297f
 804896c:	29 d8                	sub    eax,ebx
 804896e:	89 c3                	mov    ebx,eax
 8048970:	89 c6                	mov    esi,eax
 8048972:	c1 ee 05             	shr    esi,0x5
 8048975:	c1 e3 04             	shl    ebx,0x4
 8048978:	31 f3                	xor    ebx,esi
 804897a:	01 c3                	add    ebx,eax
 804897c:	81 f3 f7 b3 c1 95    	xor    ebx,0x95c1b3f7
 8048982:	29 da                	sub    edx,ebx
 8048984:	89 d3                	mov    ebx,edx
 8048986:	89 d6                	mov    esi,edx
 8048988:	c1 ee 05             	shr    esi,0x5
 804898b:	c1 e3 04             	shl    ebx,0x4
 804898e:	31 f3                	xor    ebx,esi
 8048990:	01 d3                	add    ebx,edx
 8048992:	81 f3 15 e5 c1 42    	xor    ebx,0x42c1e515
 8048998:	29 d8                	sub    eax,ebx
 804899a:	89 c3                	mov    ebx,eax
 804899c:	89 c6                	mov    esi,eax
 804899e:	c1 ee 05             	shr    esi,0x5
 80489a1:	c1 e3 04             	shl    ebx,0x4
 80489a4:	31 f3                	xor    ebx,esi
 80489a6:	01 c3                	add    ebx,eax
 80489a8:	81 f3 5c 4b b0 d9    	xor    ebx,0xd9b04b5c
 80489ae:	29 da                	sub    edx,ebx
 80489b0:	89 d3                	mov    ebx,edx
 80489b2:	89 d6                	mov    esi,edx
 80489b4:	c1 ee 05             	shr    esi,0x5
 80489b7:	c1 e3 04             	shl    ebx,0x4
 80489ba:	31 f3                	xor    ebx,esi
 80489bc:	01 d3                	add    ebx,edx
 80489be:	81 f3 5c 4b b0 d9    	xor    ebx,0xd9b04b5c
 80489c4:	29 d8                	sub    eax,ebx
 80489c6:	89 c3                	mov    ebx,eax
 80489c8:	89 c6                	mov    esi,eax
 80489ca:	c1 ee 05             	shr    esi,0x5
 80489cd:	c1 e3 04             	shl    ebx,0x4
 80489d0:	31 f3                	xor    ebx,esi
 80489d2:	01 c3                	add    ebx,eax
 80489d4:	81 f3 a3 f1 52 06    	xor    ebx,0x652f1a3
 80489da:	29 da                	sub    edx,ebx
 80489dc:	89 d3                	mov    ebx,edx
 80489de:	89 d6                	mov    esi,edx
 80489e0:	c1 ee 05             	shr    esi,0x5
 80489e3:	c1 e3 04             	shl    ebx,0x4
 80489e6:	31 f3                	xor    ebx,esi
 80489e8:	01 d3                	add    ebx,edx
 80489ea:	81 f3 85 c0 52 59    	xor    ebx,0x5952c085
 80489f0:	29 d8                	sub    eax,ebx
 80489f2:	89 c3                	mov    ebx,eax
 80489f4:	89 c6                	mov    esi,eax
 80489f6:	c1 ee 05             	shr    esi,0x5
 80489f9:	c1 e3 04             	shl    ebx,0x4
 80489fc:	31 f3                	xor    ebx,esi
 80489fe:	01 c3                	add    ebx,eax
 8048a00:	81 f3 9b 42 6c a7    	xor    ebx,0xa76c429b
 8048a06:	29 da                	sub    edx,ebx
 8048a08:	89 d3                	mov    ebx,edx
 8048a0a:	89 d6                	mov    esi,edx
 8048a0c:	c1 ee 05             	shr    esi,0x5
 8048a0f:	c1 e3 04             	shl    ebx,0x4
 8048a12:	31 f3                	xor    ebx,esi
 8048a14:	01 d3                	add    ebx,edx
 8048a16:	81 f3 cc 46 1b bb    	xor    ebx,0xbb1b46cc
 8048a1c:	29 d8                	sub    eax,ebx
 8048a1e:	89 c3                	mov    ebx,eax
 8048a20:	89 c6                	mov    esi,eax
 8048a22:	c1 ee 05             	shr    esi,0x5
 8048a25:	c1 e3 04             	shl    ebx,0x4
 8048a28:	31 f3                	xor    ebx,esi
 8048a2a:	01 c3                	add    ebx,eax
 8048a2c:	81 f3 13 cd e3 1c    	xor    ebx,0x1ce3cd13
 8048a32:	29 da                	sub    edx,ebx
 8048a34:	89 d3                	mov    ebx,edx
 8048a36:	89 d6                	mov    esi,edx
 8048a38:	c1 ee 05             	shr    esi,0x5
 8048a3b:	c1 e3 04             	shl    ebx,0x4
 8048a3e:	31 f3                	xor    ebx,esi
 8048a40:	01 d3                	add    ebx,edx
 8048a42:	81 f3 e2 c8 34 09    	xor    ebx,0x934c8e2
 8048a48:	29 d8                	sub    eax,ebx
 8048a4a:	89 c3                	mov    ebx,eax
 8048a4c:	89 c6                	mov    esi,eax
 8048a4e:	c1 ee 05             	shr    esi,0x5
 8048a51:	c1 e3 04             	shl    ebx,0x4
 8048a54:	31 f3                	xor    ebx,esi
 8048a56:	01 c3                	add    ebx,eax
 8048a58:	81 f3 78 64 d2 60    	xor    ebx,0x60d26478
 8048a5e:	29 da                	sub    edx,ebx
 8048a60:	89 d3                	mov    ebx,edx
 8048a62:	89 d6                	mov    esi,edx
 8048a64:	c1 e3 04             	shl    ebx,0x4
 8048a67:	c1 ee 05             	shr    esi,0x5
 8048a6a:	31 f3                	xor    ebx,esi
 8048a6c:	01 d3                	add    ebx,edx
 8048a6e:	81 f3 78 84 ac 2b    	xor    ebx,0x2bac8478
 8048a74:	29 d8                	sub    eax,ebx
 8048a76:	89 c3                	mov    ebx,eax
 8048a78:	89 c6                	mov    esi,eax
 8048a7a:	c1 ee 05             	shr    esi,0x5
 8048a7d:	c1 e3 04             	shl    ebx,0x4
 8048a80:	31 f3                	xor    ebx,esi
 8048a82:	01 c3                	add    ebx,eax
 8048a84:	81 f3 bf 0a 75 8d    	xor    ebx,0x8d750abf
 8048a8a:	29 da                	sub    edx,ebx
 8048a8c:	89 d3                	mov    ebx,edx
 8048a8e:	89 d6                	mov    esi,edx
 8048a90:	c1 ee 05             	shr    esi,0x5
 8048a93:	c1 e3 04             	shl    ebx,0x4
 8048a96:	31 f3                	xor    ebx,esi
 8048a98:	01 d3                	add    ebx,edx
 8048a9a:	81 f3 bf ea 9a c2    	xor    ebx,0xc29aeabf
 8048aa0:	29 d8                	sub    eax,ebx
 8048aa2:	89 c3                	mov    ebx,eax
 8048aa4:	89 c6                	mov    esi,eax
 8048aa6:	c1 ee 05             	shr    esi,0x5
 8048aa9:	c1 e3 04             	shl    ebx,0x4
 8048aac:	31 f3                	xor    ebx,esi
 8048aae:	01 c3                	add    ebx,eax
 8048ab0:	81 f3 b7 5b 8e 2e    	xor    ebx,0x2e8e5bb7
 8048ab6:	29 da                	sub    edx,ebx
 8048ab8:	89 d3                	mov    ebx,edx
 8048aba:	89 d6                	mov    esi,edx
 8048abc:	c1 ee 05             	shr    esi,0x5
 8048abf:	c1 e3 04             	shl    ebx,0x4
 8048ac2:	31 f3                	xor    ebx,esi
 8048ac4:	01 d3                	add    ebx,edx
 8048ac6:	81 f3 e8 5f 3d 42    	xor    ebx,0x423d5fe8
 8048acc:	29 d8                	sub    eax,ebx
 8048ace:	89 c3                	mov    ebx,eax
 8048ad0:	89 c6                	mov    esi,eax
 8048ad2:	c1 ee 05             	shr    esi,0x5
 8048ad5:	c1 e3 04             	shl    ebx,0x4
 8048ad8:	31 f3                	xor    ebx,esi
 8048ada:	01 c3                	add    ebx,eax
 8048adc:	81 f3 2f e6 05 a4    	xor    ebx,0xa405e62f
 8048ae2:	29 da                	sub    edx,ebx
 8048ae4:	89 d3                	mov    ebx,edx
 8048ae6:	89 d6                	mov    esi,edx
 8048ae8:	c1 ee 05             	shr    esi,0x5
 8048aeb:	c1 e3 04             	shl    ebx,0x4
 8048aee:	31 f3                	xor    ebx,esi
 8048af0:	01 d3                	add    ebx,edx
 8048af2:	81 f3 2f e6 05 a4    	xor    ebx,0xa405e62f
 8048af8:	29 d8                	sub    eax,ebx
 8048afa:	89 c3                	mov    ebx,eax
 8048afc:	89 c6                	mov    esi,eax
 8048afe:	c1 ee 05             	shr    esi,0x5
 8048b01:	c1 e3 04             	shl    ebx,0x4
 8048b04:	31 f3                	xor    ebx,esi
 8048b06:	01 c3                	add    ebx,eax
 8048b08:	81 f3 94 7d f4 e7    	xor    ebx,0xe7f47d94
 8048b0e:	29 da                	sub    edx,ebx
 8048b10:	89 d3                	mov    ebx,edx
 8048b12:	89 d6                	mov    esi,edx
 8048b14:	c1 ee 05             	shr    esi,0x5
 8048b17:	c1 e3 04             	shl    ebx,0x4
 8048b1a:	31 f3                	xor    ebx,esi
 8048b1c:	01 d3                	add    ebx,edx
 8048b1e:	81 f3 45 68 1f f2    	xor    ebx,0xf21f6845
 8048b24:	29 d8                	sub    eax,ebx
 8048b26:	89 c3                	mov    ebx,eax
 8048b28:	89 c6                	mov    esi,eax
 8048b2a:	c1 ee 05             	shr    esi,0x5
 8048b2d:	c1 e3 04             	shl    ebx,0x4
 8048b30:	31 f3                	xor    ebx,esi
 8048b32:	01 c3                	add    ebx,eax
 8048b34:	81 f3 db 23 97 14    	xor    ebx,0x149723db
 8048b3a:	29 da                	sub    edx,ebx
 8048b3c:	89 d3                	mov    ebx,edx
 8048b3e:	89 d6                	mov    esi,edx
 8048b40:	c1 ee 05             	shr    esi,0x5
 8048b43:	c1 e3 04             	shl    ebx,0x4
 8048b46:	31 f3                	xor    ebx,esi
 8048b48:	01 d3                	add    ebx,edx
 8048b4a:	81 f3 db 23 97 14    	xor    ebx,0x149723db
 8048b50:	29 d8                	sub    eax,ebx
 8048b52:	89 c3                	mov    ebx,eax
 8048b54:	89 c6                	mov    esi,eax
 8048b56:	c1 ee 05             	shr    esi,0x5
 8048b59:	c1 e3 04             	shl    ebx,0x4
 8048b5c:	31 f3                	xor    ebx,esi
 8048b5e:	01 c3                	add    ebx,eax
 8048b60:	81 f3 d3 74 b0 b5    	xor    ebx,0xb5b074d3
 8048b66:	29 da                	sub    edx,ebx
 8048b68:	89 d3                	mov    ebx,edx
 8048b6a:	89 d6                	mov    esi,edx
 8048b6c:	c1 ee 05             	shr    esi,0x5
 8048b6f:	c1 e3 04             	shl    ebx,0x4
 8048b72:	31 f3                	xor    ebx,esi
 8048b74:	01 d3                	add    ebx,edx
 8048b76:	81 f3 22 8a 85 ab    	xor    ebx,0xab858a22
 8048b7c:	29 d8                	sub    eax,ebx
 8048b7e:	89 c3                	mov    ebx,eax
 8048b80:	89 c6                	mov    esi,eax
 8048b82:	c1 ee 05             	shr    esi,0x5
 8048b85:	c1 e3 04             	shl    ebx,0x4
 8048b88:	31 f3                	xor    ebx,esi
 8048b8a:	01 c3                	add    ebx,eax
 8048b8c:	81 f3 4b ff 27 2b    	xor    ebx,0x2b27ff4b
 8048b92:	29 da                	sub    edx,ebx
 8048b94:	89 d3                	mov    ebx,edx
 8048b96:	89 d6                	mov    esi,edx
 8048b98:	c1 ee 05             	shr    esi,0x5
 8048b9b:	c1 e3 04             	shl    ebx,0x4
 8048b9e:	31 f3                	xor    ebx,esi
 8048ba0:	01 d3                	add    ebx,edx
 8048ba2:	81 f3 4b ff 27 2b    	xor    ebx,0x2b27ff4b
 8048ba8:	29 d8                	sub    eax,ebx
 8048baa:	89 c3                	mov    ebx,eax
 8048bac:	89 c6                	mov    esi,eax
 8048bae:	c1 ee 05             	shr    esi,0x5
 8048bb1:	c1 e3 04             	shl    ebx,0x4
 8048bb4:	31 f3                	xor    ebx,esi
 8048bb6:	01 c3                	add    ebx,eax
 8048bb8:	81 f3 b0 96 16 6f    	xor    ebx,0x6f1696b0
 8048bbe:	29 da                	sub    edx,ebx
 8048bc0:	89 d3                	mov    ebx,edx
 8048bc2:	89 d6                	mov    esi,edx
 8048bc4:	c1 e3 04             	shl    ebx,0x4
 8048bc7:	c1 ee 05             	shr    esi,0x5
 8048bca:	31 f3                	xor    ebx,esi
 8048bcc:	01 d3                	add    ebx,edx
 8048bce:	81 f3 92 85 f0 8c    	xor    ebx,0x8cf08592
 8048bd4:	29 d8                	sub    eax,ebx
 8048bd6:	89 c3                	mov    ebx,eax
 8048bd8:	89 c6                	mov    esi,eax
 8048bda:	c1 ee 05             	shr    esi,0x5
 8048bdd:	c1 e3 04             	shl    ebx,0x4
 8048be0:	31 f3                	xor    ebx,esi
 8048be2:	01 c3                	add    ebx,eax
 8048be4:	81 f3 f7 3c b9 9b    	xor    ebx,0x9bb93cf7
 8048bea:	29 da                	sub    edx,ebx
 8048bec:	89 d3                	mov    ebx,edx
 8048bee:	89 d6                	mov    esi,edx
 8048bf0:	c1 ee 05             	shr    esi,0x5
 8048bf3:	c1 e3 04             	shl    ebx,0x4
 8048bf6:	31 f3                	xor    ebx,esi
 8048bf8:	01 d3                	add    ebx,edx
 8048bfa:	81 f3 a8 07 0a db    	xor    ebx,0xdb0a07a8
 8048c00:	29 d8                	sub    eax,ebx
 8048c02:	89 c3                	mov    ebx,eax
 8048c04:	89 c6                	mov    esi,eax
 8048c06:	c1 ee 05             	shr    esi,0x5
 8048c09:	c1 e3 04             	shl    ebx,0x4
 8048c0c:	31 f3                	xor    ebx,esi
 8048c0e:	01 c3                	add    ebx,eax
 8048c10:	81 f3 ef 8d d2 3c    	xor    ebx,0x3cd28def
 8048c16:	29 da                	sub    edx,ebx
 8048c18:	89 d3                	mov    ebx,edx
 8048c1a:	89 d6                	mov    esi,edx
 8048c1c:	c1 ee 05             	shr    esi,0x5
 8048c1f:	c1 e3 04             	shl    ebx,0x4
 8048c22:	31 f3                	xor    ebx,esi
 8048c24:	01 d3                	add    ebx,edx
 8048c26:	81 f3 3e c3 81 fd    	xor    ebx,0xfd81c33e
 8048c2c:	29 d8                	sub    eax,ebx
 8048c2e:	89 c3                	mov    ebx,eax
 8048c30:	89 c6                	mov    esi,eax
 8048c32:	c1 ee 05             	shr    esi,0x5
 8048c35:	c1 e3 04             	shl    ebx,0x4
 8048c38:	31 f3                	xor    ebx,esi
 8048c3a:	01 c3                	add    ebx,eax
 8048c3c:	81 f3 67 18 4a b2    	xor    ebx,0xb24a1867
 8048c42:	29 da                	sub    edx,ebx
 8048c44:	89 d3                	mov    ebx,edx
 8048c46:	89 d6                	mov    esi,edx
 8048c48:	c1 ee 05             	shr    esi,0x5
 8048c4b:	c1 e3 04             	shl    ebx,0x4
 8048c4e:	31 f3                	xor    ebx,esi
 8048c50:	01 d3                	add    ebx,edx
 8048c52:	81 f3 85 29 70 94    	xor    ebx,0x94702985
 8048c58:	29 d8                	sub    eax,ebx
 8048c5a:	89 c3                	mov    ebx,eax
 8048c5c:	89 c6                	mov    esi,eax
 8048c5e:	c1 ee 05             	shr    esi,0x5
 8048c61:	c1 e3 04             	shl    ebx,0x4
 8048c64:	31 f3                	xor    ebx,esi
 8048c66:	01 c3                	add    ebx,eax
 8048c68:	81 f3 cc af 38 f6    	xor    ebx,0xf638afcc
 8048c6e:	29 da                	sub    edx,ebx
 8048c70:	89 d3                	mov    ebx,edx
 8048c72:	89 d6                	mov    esi,edx
 8048c74:	c1 ee 05             	shr    esi,0x5
 8048c77:	c1 e3 04             	shl    ebx,0x4
 8048c7a:	31 f3                	xor    ebx,esi
 8048c7c:	01 d3                	add    ebx,edx
 8048c7e:	81 f3 cc af 38 f6    	xor    ebx,0xf638afcc
 8048c84:	29 d8                	sub    eax,ebx
 8048c86:	89 c3                	mov    ebx,eax
 8048c88:	89 c6                	mov    esi,eax
 8048c8a:	c1 ee 05             	shr    esi,0x5
 8048c8d:	c1 e3 04             	shl    ebx,0x4
 8048c90:	31 f3                	xor    ebx,esi
 8048c92:	01 c3                	add    ebx,eax
 8048c94:	81 f3 13 56 db 22    	xor    ebx,0x22db5613
 8048c9a:	29 da                	sub    edx,ebx
 8048c9c:	89 d3                	mov    ebx,edx
 8048c9e:	89 d6                	mov    esi,edx
 8048ca0:	c1 ee 05             	shr    esi,0x5
 8048ca3:	c1 e3 04             	shl    ebx,0x4
 8048ca6:	31 f3                	xor    ebx,esi
 8048ca8:	01 d3                	add    ebx,edx
 8048caa:	81 f3 f5 24 db 75    	xor    ebx,0x75db24f5
 8048cb0:	29 d8                	sub    eax,ebx
 8048cb2:	89 c3                	mov    ebx,eax
 8048cb4:	89 c6                	mov    esi,eax
 8048cb6:	c1 ee 05             	shr    esi,0x5
 8048cb9:	c1 e3 04             	shl    ebx,0x4
 8048cbc:	31 f3                	xor    ebx,esi
 8048cbe:	01 c3                	add    ebx,eax
 8048cc0:	81 f3 0b a7 f4 c3    	xor    ebx,0xc3f4a70b
 8048cc6:	29 da                	sub    edx,ebx
 8048cc8:	89 d3                	mov    ebx,edx
 8048cca:	89 d6                	mov    esi,edx
 8048ccc:	c1 ee 05             	shr    esi,0x5
 8048ccf:	c1 e3 04             	shl    ebx,0x4
 8048cd2:	31 f3                	xor    ebx,esi
 8048cd4:	01 d3                	add    ebx,edx
 8048cd6:	81 f3 0b a7 f4 c3    	xor    ebx,0xc3f4a70b
 8048cdc:	29 d8                	sub    eax,ebx
 8048cde:	89 c3                	mov    ebx,eax
 8048ce0:	89 c6                	mov    esi,eax
 8048ce2:	c1 ee 05             	shr    esi,0x5
 8048ce5:	c1 e3 04             	shl    ebx,0x4
 8048ce8:	31 f3                	xor    ebx,esi
 8048cea:	01 c3                	add    ebx,eax
 8048cec:	81 f3 83 31 6c 39    	xor    ebx,0x396c3183
 8048cf2:	29 da                	sub    edx,ebx
 8048cf4:	89 d3                	mov    ebx,edx
 8048cf6:	89 d6                	mov    esi,edx
 8048cf8:	c1 ee 05             	shr    esi,0x5
 8048cfb:	c1 e3 04             	shl    ebx,0x4
 8048cfe:	31 f3                	xor    ebx,esi
 8048d00:	01 d3                	add    ebx,edx
 8048d02:	81 f3 a1 62 6c e6    	xor    ebx,0xe66c62a1
 8048d08:	29 d8                	sub    eax,ebx
 8048d0a:	89 c3                	mov    ebx,eax
 8048d0c:	89 c6                	mov    esi,eax
 8048d0e:	c1 ee 05             	shr    esi,0x5
 8048d11:	c1 e3 04             	shl    ebx,0x4
 8048d14:	31 f3                	xor    ebx,esi
 8048d16:	01 c3                	add    ebx,eax
 8048d18:	81 f3 e8 c8 5a 7d    	xor    ebx,0x7d5ac8e8
 8048d1e:	29 da                	sub    edx,ebx
 8048d20:	89 d3                	mov    ebx,edx
 8048d22:	89 d6                	mov    esi,edx
 8048d24:	c1 e3 04             	shl    ebx,0x4
 8048d27:	c1 ee 05             	shr    esi,0x5
 8048d2a:	31 f3                	xor    ebx,esi
 8048d2c:	01 d3                	add    ebx,edx
 8048d2e:	81 f3 e8 c8 5a 7d    	xor    ebx,0x7d5ac8e8
 8048d34:	29 d8                	sub    eax,ebx
 8048d36:	89 c3                	mov    ebx,eax
 8048d38:	89 c6                	mov    esi,eax
 8048d3a:	c1 ee 05             	shr    esi,0x5
 8048d3d:	c1 e3 04             	shl    ebx,0x4
 8048d40:	31 f3                	xor    ebx,esi
 8048d42:	01 c3                	add    ebx,eax
 8048d44:	81 f3 2f 6f fd a9    	xor    ebx,0xa9fd6f2f
 8048d4a:	29 da                	sub    edx,ebx
 8048d4c:	89 d3                	mov    ebx,edx
 8048d4e:	89 d6                	mov    esi,edx
 8048d50:	c1 ee 05             	shr    esi,0x5
 8048d53:	c1 e3 04             	shl    ebx,0x4
 8048d56:	31 f3                	xor    ebx,esi
 8048d58:	01 d3                	add    ebx,edx
 8048d5a:	81 f3 2f 4f 23 df    	xor    ebx,0xdf234f2f
 8048d60:	29 d8                	sub    eax,ebx
 8048d62:	89 c3                	mov    ebx,eax
 8048d64:	89 c6                	mov    esi,eax
 8048d66:	c1 ee 05             	shr    esi,0x5
 8048d69:	c1 e3 04             	shl    ebx,0x4
 8048d6c:	31 f3                	xor    ebx,esi
 8048d6e:	01 c3                	add    ebx,eax
 8048d70:	81 f3 27 c0 16 4b    	xor    ebx,0x4b16c027
 8048d76:	29 da                	sub    edx,ebx
 8048d78:	89 d3                	mov    ebx,edx
 8048d7a:	89 d6                	mov    esi,edx
 8048d7c:	c1 ee 05             	shr    esi,0x5
 8048d7f:	c1 e3 04             	shl    ebx,0x4
 8048d82:	31 f3                	xor    ebx,esi
 8048d84:	01 d3                	add    ebx,edx
 8048d86:	81 f3 58 c4 c5 5e    	xor    ebx,0x5ec5c458
 8048d8c:	29 d8                	sub    eax,ebx
 8048d8e:	89 c3                	mov    ebx,eax
 8048d90:	89 c6                	mov    esi,eax
 8048d92:	c1 ee 05             	shr    esi,0x5
 8048d95:	c1 e3 04             	shl    ebx,0x4
 8048d98:	31 f3                	xor    ebx,esi
 8048d9a:	01 c3                	add    ebx,eax
 8048d9c:	81 f3 9f 4a 8e c0    	xor    ebx,0xc08e4a9f
 8048da2:	29 da                	sub    edx,ebx
 8048da4:	89 d3                	mov    ebx,edx
 8048da6:	89 d6                	mov    esi,edx
 8048da8:	c1 ee 05             	shr    esi,0x5
 8048dab:	c1 e3 04             	shl    ebx,0x4
 8048dae:	31 f3                	xor    ebx,esi
 8048db0:	01 d3                	add    ebx,edx
 8048db2:	81 f3 6e 46 df ac    	xor    ebx,0xacdf466e
 8048db8:	29 d8                	sub    eax,ebx
 8048dba:	89 c3                	mov    ebx,eax
 8048dbc:	89 c6                	mov    esi,eax
 8048dbe:	c1 ee 05             	shr    esi,0x5
 8048dc1:	c1 e3 04             	shl    ebx,0x4
 8048dc4:	31 f3                	xor    ebx,esi
 8048dc6:	01 c3                	add    ebx,eax
 8048dc8:	81 f3 04 e2 7c 04    	xor    ebx,0x47ce204
 8048dce:	29 da                	sub    edx,ebx
 8048dd0:	89 d3                	mov    ebx,edx
 8048dd2:	89 d6                	mov    esi,edx
 8048dd4:	c1 ee 05             	shr    esi,0x5
 8048dd7:	c1 e3 04             	shl    ebx,0x4
 8048dda:	31 f3                	xor    ebx,esi
 8048ddc:	01 d3                	add    ebx,edx
 8048dde:	81 f3 04 02 57 cf    	xor    ebx,0xcf570204
 8048de4:	29 d8                	sub    eax,ebx
 8048de6:	89 c3                	mov    ebx,eax
 8048de8:	89 c6                	mov    esi,eax
 8048dea:	c1 ee 05             	shr    esi,0x5
 8048ded:	c1 e3 04             	shl    ebx,0x4
 8048df0:	31 f3                	xor    ebx,esi
 8048df2:	01 c3                	add    ebx,eax
 8048df4:	81 f3 4b 88 1f 31    	xor    ebx,0x311f884b
 8048dfa:	29 da                	sub    edx,ebx
 8048dfc:	89 d3                	mov    ebx,edx
 8048dfe:	89 d6                	mov    esi,edx
 8048e00:	c1 ee 05             	shr    esi,0x5
 8048e03:	c1 e3 04             	shl    ebx,0x4
 8048e06:	31 f3                	xor    ebx,esi
 8048e08:	01 d3                	add    ebx,edx
 8048e0a:	81 f3 4b 68 45 66    	xor    ebx,0x6645684b
 8048e10:	29 d8                	sub    eax,ebx
 8048e12:	89 c3                	mov    ebx,eax
 8048e14:	89 c6                	mov    esi,eax
 8048e16:	c1 ee 05             	shr    esi,0x5
 8048e19:	c1 e3 04             	shl    ebx,0x4
 8048e1c:	31 f3                	xor    ebx,esi
 8048e1e:	01 c3                	add    ebx,eax
 8048e20:	81 f3 43 d9 38 d2    	xor    ebx,0xd238d943
 8048e26:	29 da                	sub    edx,ebx
 8048e28:	89 d3                	mov    ebx,edx
 8048e2a:	89 d6                	mov    esi,edx
 8048e2c:	c1 ee 05             	shr    esi,0x5
 8048e2f:	c1 e3 04             	shl    ebx,0x4
 8048e32:	31 f3                	xor    ebx,esi
 8048e34:	01 d3                	add    ebx,edx
 8048e36:	81 f3 92 ee 0d c8    	xor    ebx,0xc80dee92
 8048e3c:	29 d8                	sub    eax,ebx
 8048e3e:	89 c3                	mov    ebx,eax
 8048e40:	89 c6                	mov    esi,eax
 8048e42:	c1 ee 05             	shr    esi,0x5
 8048e45:	c1 e3 04             	shl    ebx,0x4
 8048e48:	31 f3                	xor    ebx,esi
 8048e4a:	01 c3                	add    ebx,eax
 8048e4c:	81 f3 bb 63 b0 47    	xor    ebx,0x47b063bb
 8048e52:	29 da                	sub    edx,ebx
 8048e54:	89 d3                	mov    ebx,edx
 8048e56:	89 d6                	mov    esi,edx
 8048e58:	c1 ee 05             	shr    esi,0x5
 8048e5b:	c1 e3 04             	shl    ebx,0x4
 8048e5e:	31 f3                	xor    ebx,esi
 8048e60:	01 d3                	add    ebx,edx
 8048e62:	81 f3 bb 63 b0 47    	xor    ebx,0x47b063bb
 8048e68:	29 d8                	sub    eax,ebx
 8048e6a:	89 c3                	mov    ebx,eax
 8048e6c:	89 c6                	mov    esi,eax
 8048e6e:	c1 ee 05             	shr    esi,0x5
 8048e71:	c1 e3 04             	shl    ebx,0x4
 8048e74:	31 f3                	xor    ebx,esi
 8048e76:	01 c3                	add    ebx,eax
 8048e78:	81 f3 20 fb 9e 8b    	xor    ebx,0x8b9efb20
 8048e7e:	29 da                	sub    edx,ebx
 8048e80:	89 d3                	mov    ebx,edx
 8048e82:	89 d6                	mov    esi,edx
 8048e84:	c1 e3 04             	shl    ebx,0x4
 8048e87:	c1 ee 05             	shr    esi,0x5
 8048e8a:	31 f3                	xor    ebx,esi
 8048e8c:	01 d3                	add    ebx,edx
 8048e8e:	81 f3 d1 e5 c9 95    	xor    ebx,0x95c9e5d1
 8048e94:	29 d8                	sub    eax,ebx
 8048e96:	89 c3                	mov    ebx,eax
 8048e98:	89 c6                	mov    esi,eax
 8048e9a:	c1 ee 05             	shr    esi,0x5
 8048e9d:	c1 e3 04             	shl    ebx,0x4
 8048ea0:	31 f3                	xor    ebx,esi
 8048ea2:	01 c3                	add    ebx,eax
 8048ea4:	81 f3 67 a1 41 b8    	xor    ebx,0xb841a167
 8048eaa:	29 da                	sub    edx,ebx
 8048eac:	89 d3                	mov    ebx,edx
 8048eae:	89 d6                	mov    esi,edx
 8048eb0:	c1 ee 05             	shr    esi,0x5
 8048eb3:	c1 e3 04             	shl    ebx,0x4
 8048eb6:	31 f3                	xor    ebx,esi
 8048eb8:	01 d3                	add    ebx,edx
 8048eba:	81 f3 67 a1 41 b8    	xor    ebx,0xb841a167
 8048ec0:	29 d8                	sub    eax,ebx
 8048ec2:	89 c3                	mov    ebx,eax
 8048ec4:	89 c6                	mov    esi,eax
 8048ec6:	c1 ee 05             	shr    esi,0x5
 8048ec9:	c1 e3 04             	shl    ebx,0x4
 8048ecc:	31 f3                	xor    ebx,esi
 8048ece:	01 c3                	add    ebx,eax
 8048ed0:	81 f3 5f f2 5a 59    	xor    ebx,0x595af25f
 8048ed6:	29 da                	sub    edx,ebx
 8048ed8:	89 d3                	mov    ebx,edx
 8048eda:	89 d6                	mov    esi,edx
 8048edc:	c1 ee 05             	shr    esi,0x5
 8048edf:	c1 e3 04             	shl    ebx,0x4
 8048ee2:	31 f3                	xor    ebx,esi
 8048ee4:	01 d3                	add    ebx,edx
 8048ee6:	81 f3 ae 27 0a 1a    	xor    ebx,0x1a0a27ae
 8048eec:	29 d8                	sub    eax,ebx
 8048eee:	89 c3                	mov    ebx,eax
 8048ef0:	89 c6                	mov    esi,eax
 8048ef2:	c1 ee 05             	shr    esi,0x5
 8048ef5:	c1 e3 04             	shl    ebx,0x4
 8048ef8:	31 f3                	xor    ebx,esi
 8048efa:	01 c3                	add    ebx,eax
 8048efc:	81 f3 d7 7c d2 ce    	xor    ebx,0xced27cd7
 8048f02:	29 da                	sub    edx,ebx
 8048f04:	89 d3                	mov    ebx,edx
 8048f06:	89 d6                	mov    esi,edx
 8048f08:	c1 ee 05             	shr    esi,0x5
 8048f0b:	c1 e3 04             	shl    ebx,0x4
 8048f0e:	31 f3                	xor    ebx,esi
 8048f10:	01 d3                	add    ebx,edx
 8048f12:	81 f3 f5 8d f8 b0    	xor    ebx,0xb0f88df5
 8048f18:	29 d8                	sub    eax,ebx
 8048f1a:	89 c3                	mov    ebx,eax
 8048f1c:	89 c6                	mov    esi,eax
 8048f1e:	c1 ee 05             	shr    esi,0x5
 8048f21:	c1 e3 04             	shl    ebx,0x4
 8048f24:	31 f3                	xor    ebx,esi
 8048f26:	01 c3                	add    ebx,eax
 8048f28:	81 f3 3c 14 c1 12    	xor    ebx,0x12c1143c
 8048f2e:	29 da                	sub    edx,ebx
 8048f30:	89 d3                	mov    ebx,edx
 8048f32:	89 d6                	mov    esi,edx
 8048f34:	c1 ee 05             	shr    esi,0x5
 8048f37:	c1 e3 04             	shl    ebx,0x4
 8048f3a:	31 f3                	xor    ebx,esi
 8048f3c:	01 d3                	add    ebx,edx
 8048f3e:	81 f3 1e 03 9b 30    	xor    ebx,0x309b031e
 8048f44:	29 d8                	sub    eax,ebx
 8048f46:	89 c3                	mov    ebx,eax
 8048f48:	89 c6                	mov    esi,eax
 8048f4a:	c1 ee 05             	shr    esi,0x5
 8048f4d:	c1 e3 04             	shl    ebx,0x4
 8048f50:	31 f3                	xor    ebx,esi
 8048f52:	01 c3                	add    ebx,eax
 8048f54:	81 f3 83 ba 63 3f    	xor    ebx,0x3f63ba83
 8048f5a:	29 da                	sub    edx,ebx
 8048f5c:	89 d3                	mov    ebx,edx
 8048f5e:	89 d6                	mov    esi,edx
 8048f60:	c1 ee 05             	shr    esi,0x5
 8048f63:	c1 e3 04             	shl    ebx,0x4
 8048f66:	31 f3                	xor    ebx,esi
 8048f68:	01 d3                	add    ebx,edx
 8048f6a:	81 f3 34 85 b4 7e    	xor    ebx,0x7eb48534
 8048f70:	29 d8                	sub    eax,ebx
 8048f72:	89 c3                	mov    ebx,eax
 8048f74:	89 c6                	mov    esi,eax
 8048f76:	c1 ee 05             	shr    esi,0x5
 8048f79:	c1 e3 04             	shl    ebx,0x4
 8048f7c:	31 f3                	xor    ebx,esi
 8048f7e:	01 c3                	add    ebx,eax
 8048f80:	81 f3 7b 0b 7d e0    	xor    ebx,0xe07d0b7b
 8048f86:	29 da                	sub    edx,ebx
 8048f88:	89 d3                	mov    ebx,edx
 8048f8a:	89 d6                	mov    esi,edx
 8048f8c:	c1 ee 05             	shr    esi,0x5
 8048f8f:	c1 e3 04             	shl    ebx,0x4
 8048f92:	31 f3                	xor    ebx,esi
 8048f94:	01 d3                	add    ebx,edx
 8048f96:	81 f3 ca 40 2c a1    	xor    ebx,0xa12c40ca
 8048f9c:	29 d8                	sub    eax,ebx
 8048f9e:	89 c3                	mov    ebx,eax
 8048fa0:	89 c6                	mov    esi,eax
 8048fa2:	c1 ee 05             	shr    esi,0x5
 8048fa5:	c1 e3 04             	shl    ebx,0x4
 8048fa8:	31 f3                	xor    ebx,esi
 8048faa:	01 c3                	add    ebx,eax
 8048fac:	81 f3 f3 95 f4 55    	xor    ebx,0x55f495f3
 8048fb2:	29 da                	sub    edx,ebx
 8048fb4:	89 d3                	mov    ebx,edx
 8048fb6:	89 d6                	mov    esi,edx
 8048fb8:	c1 ee 05             	shr    esi,0x5
 8048fbb:	c1 e3 04             	shl    ebx,0x4
 8048fbe:	31 f3                	xor    ebx,esi
 8048fc0:	01 d3                	add    ebx,edx
 8048fc2:	81 f3 11 c7 f4 02    	xor    ebx,0x2f4c711
 8048fc8:	29 d8                	sub    eax,ebx
 8048fca:	89 c3                	mov    ebx,eax
 8048fcc:	89 c6                	mov    esi,eax
 8048fce:	c1 ee 05             	shr    esi,0x5
 8048fd1:	c1 e3 04             	shl    ebx,0x4
 8048fd4:	31 f3                	xor    ebx,esi
 8048fd6:	01 c3                	add    ebx,eax
 8048fd8:	81 f3 58 2d e3 99    	xor    ebx,0x99e32d58
 8048fde:	29 da                	sub    edx,ebx
 8048fe0:	89 d3                	mov    ebx,edx
 8048fe2:	89 d6                	mov    esi,edx
 8048fe4:	c1 e3 04             	shl    ebx,0x4
 8048fe7:	c1 ee 05             	shr    esi,0x5
 8048fea:	31 f3                	xor    ebx,esi
 8048fec:	01 d3                	add    ebx,edx
 8048fee:	81 f3 58 2d e3 99    	xor    ebx,0x99e32d58
 8048ff4:	29 d8                	sub    eax,ebx
 8048ff6:	89 c3                	mov    ebx,eax
 8048ff8:	89 c6                	mov    esi,eax
 8048ffa:	c1 ee 05             	shr    esi,0x5
 8048ffd:	c1 e3 04             	shl    ebx,0x4
 8049000:	31 f3                	xor    ebx,esi
 8049002:	01 c3                	add    ebx,eax
 8049004:	81 f3 9f d3 85 c6    	xor    ebx,0xc685d39f
 804900a:	29 da                	sub    edx,ebx
 804900c:	89 d3                	mov    ebx,edx
 804900e:	89 d6                	mov    esi,edx
 8049010:	c1 ee 05             	shr    esi,0x5
 8049013:	c1 e3 04             	shl    ebx,0x4
 8049016:	31 f3                	xor    ebx,esi
 8049018:	01 d3                	add    ebx,edx
 804901a:	81 f3 81 a2 85 19    	xor    ebx,0x1985a281
 8049020:	29 d8                	sub    eax,ebx
 8049022:	89 c3                	mov    ebx,eax
 8049024:	89 c6                	mov    esi,eax
 8049026:	c1 ee 05             	shr    esi,0x5
 8049029:	c1 e3 04             	shl    ebx,0x4
 804902c:	31 f3                	xor    ebx,esi
 804902e:	01 c3                	add    ebx,eax
 8049030:	81 f3 97 24 9f 67    	xor    ebx,0x679f2497
 8049036:	29 da                	sub    edx,ebx
 8049038:	89 d3                	mov    ebx,edx
 804903a:	89 d6                	mov    esi,edx
 804903c:	c1 ee 05             	shr    esi,0x5
 804903f:	c1 e3 04             	shl    ebx,0x4
 8049042:	31 f3                	xor    ebx,esi
 8049044:	01 d3                	add    ebx,edx
 8049046:	81 f3 97 24 9f 67    	xor    ebx,0x679f2497
 804904c:	29 d8                	sub    eax,ebx
 804904e:	89 c3                	mov    ebx,eax
 8049050:	89 c6                	mov    esi,eax
 8049052:	c1 ee 05             	shr    esi,0x5
 8049055:	c1 e3 04             	shl    ebx,0x4
 8049058:	31 f3                	xor    ebx,esi
 804905a:	01 c3                	add    ebx,eax
 804905c:	81 f3 0f af 16 dd    	xor    ebx,0xdd16af0f
 8049062:	29 da                	sub    edx,ebx
 8049064:	89 d3                	mov    ebx,edx
 8049066:	89 d6                	mov    esi,edx
 8049068:	c1 ee 05             	shr    esi,0x5
 804906b:	c1 e3 04             	shl    ebx,0x4
 804906e:	31 f3                	xor    ebx,esi
 8049070:	01 d3                	add    ebx,edx
 8049072:	81 f3 2d e0 16 8a    	xor    ebx,0x8a16e02d
 8049078:	29 d8                	sub    eax,ebx
 804907a:	89 c3                	mov    ebx,eax
 804907c:	89 c6                	mov    esi,eax
 804907e:	c1 ee 05             	shr    esi,0x5
 8049081:	c1 e3 04             	shl    ebx,0x4
 8049084:	31 f3                	xor    ebx,esi
 8049086:	01 c3                	add    ebx,eax
 8049088:	81 f3 74 46 05 21    	xor    ebx,0x21054674
 804908e:	29 da                	sub    edx,ebx
 8049090:	89 d3                	mov    ebx,edx
 8049092:	89 d6                	mov    esi,edx
 8049094:	c1 ee 05             	shr    esi,0x5
 8049097:	c1 e3 04             	shl    ebx,0x4
 804909a:	31 f3                	xor    ebx,esi
 804909c:	01 d3                	add    ebx,edx
 804909e:	81 f3 74 66 df eb    	xor    ebx,0xebdf6674
 80490a4:	29 d8                	sub    eax,ebx
 80490a6:	89 c3                	mov    ebx,eax
 80490a8:	89 c6                	mov    esi,eax
 80490aa:	c1 ee 05             	shr    esi,0x5
 80490ad:	c1 e3 04             	shl    ebx,0x4
 80490b0:	31 f3                	xor    ebx,esi
 80490b2:	01 c3                	add    ebx,eax
 80490b4:	81 f3 bb ec a7 4d    	xor    ebx,0x4da7ecbb
 80490ba:	29 da                	sub    edx,ebx
 80490bc:	89 d3                	mov    ebx,edx
 80490be:	89 d6                	mov    esi,edx
 80490c0:	c1 ee 05             	shr    esi,0x5
 80490c3:	c1 e3 04             	shl    ebx,0x4
 80490c6:	31 f3                	xor    ebx,esi
 80490c8:	01 d3                	add    ebx,edx
 80490ca:	81 f3 bb cc cd 82    	xor    ebx,0x82cdccbb
 80490d0:	29 d8                	sub    eax,ebx
 80490d2:	89 c3                	mov    ebx,eax
 80490d4:	89 c6                	mov    esi,eax
 80490d6:	c1 ee 05             	shr    esi,0x5
 80490d9:	c1 e3 04             	shl    ebx,0x4
 80490dc:	31 f3                	xor    ebx,esi
 80490de:	01 c3                	add    ebx,eax
 80490e0:	81 f3 b3 3d c1 ee    	xor    ebx,0xeec13db3
 80490e6:	29 da                	sub    edx,ebx
 80490e8:	89 d3                	mov    ebx,edx
 80490ea:	89 d6                	mov    esi,edx
 80490ec:	c1 ee 05             	shr    esi,0x5
 80490ef:	c1 e3 04             	shl    ebx,0x4
 80490f2:	31 f3                	xor    ebx,esi
 80490f4:	01 d3                	add    ebx,edx
 80490f6:	81 f3 e4 41 70 02    	xor    ebx,0x27041e4
 80490fc:	29 d8                	sub    eax,ebx
 80490fe:	89 c3                	mov    ebx,eax
 8049100:	89 c6                	mov    esi,eax
 8049102:	c1 ee 05             	shr    esi,0x5
 8049105:	c1 e3 04             	shl    ebx,0x4
 8049108:	31 f3                	xor    ebx,esi
 804910a:	01 c3                	add    ebx,eax
 804910c:	81 f3 2b c8 38 64    	xor    ebx,0x6438c82b
 8049112:	29 da                	sub    edx,ebx
 8049114:	89 d3                	mov    ebx,edx
 8049116:	89 d6                	mov    esi,edx
 8049118:	c1 ee 05             	shr    esi,0x5
 804911b:	c1 e3 04             	shl    ebx,0x4
 804911e:	31 f3                	xor    ebx,esi
 8049120:	01 d3                	add    ebx,edx
 8049122:	81 f3 fa c3 89 50    	xor    ebx,0x5089c3fa
 8049128:	29 d8                	sub    eax,ebx
 804912a:	89 c3                	mov    ebx,eax
 804912c:	89 c6                	mov    esi,eax
 804912e:	c1 ee 05             	shr    esi,0x5
 8049131:	c1 e3 04             	shl    ebx,0x4
 8049134:	31 f3                	xor    ebx,esi
 8049136:	01 c3                	add    ebx,eax
 8049138:	81 f3 90 5f 27 a8    	xor    ebx,0xa8275f90
 804913e:	29 da                	sub    edx,ebx
 8049140:	89 d3                	mov    ebx,edx
 8049142:	89 d6                	mov    esi,edx
 8049144:	c1 e3 04             	shl    ebx,0x4
 8049147:	c1 ee 05             	shr    esi,0x5
 804914a:	31 f3                	xor    ebx,esi
 804914c:	01 d3                	add    ebx,edx
 804914e:	81 f3 41 4a 52 b2    	xor    ebx,0xb2524a41
 8049154:	29 d8                	sub    eax,ebx
 8049156:	89 c3                	mov    ebx,eax
 8049158:	89 c6                	mov    esi,eax
 804915a:	c1 ee 05             	shr    esi,0x5
 804915d:	c1 e3 04             	shl    ebx,0x4
 8049160:	31 f3                	xor    ebx,esi
 8049162:	01 c3                	add    ebx,eax
 8049164:	81 f3 d7 05 ca d4    	xor    ebx,0xd4ca05d7
 804916a:	29 da                	sub    edx,ebx
 804916c:	89 d3                	mov    ebx,edx
 804916e:	89 d6                	mov    esi,edx
 8049170:	c1 ee 05             	shr    esi,0x5
 8049173:	c1 e3 04             	shl    ebx,0x4
 8049176:	31 f3                	xor    ebx,esi
 8049178:	01 d3                	add    ebx,edx
 804917a:	81 f3 d7 05 ca d4    	xor    ebx,0xd4ca05d7
 8049180:	29 d8                	sub    eax,ebx
 8049182:	89 c3                	mov    ebx,eax
 8049184:	89 c6                	mov    esi,eax
 8049186:	c1 ee 05             	shr    esi,0x5
 8049189:	c1 e3 04             	shl    ebx,0x4
 804918c:	31 f3                	xor    ebx,esi
 804918e:	01 c3                	add    ebx,eax
 8049190:	81 f3 cf 56 e3 75    	xor    ebx,0x75e356cf
 8049196:	29 da                	sub    edx,ebx
 8049198:	89 d3                	mov    ebx,edx
 804919a:	89 d6                	mov    esi,edx
 804919c:	c1 ee 05             	shr    esi,0x5
 804919f:	c1 e3 04             	shl    ebx,0x4
 80491a2:	31 f3                	xor    ebx,esi
 80491a4:	01 d3                	add    ebx,edx
 80491a6:	81 f3 1e 6c b8 6b    	xor    ebx,0x6bb86c1e
 80491ac:	29 d8                	sub    eax,ebx
 80491ae:	89 c3                	mov    ebx,eax
 80491b0:	89 c6                	mov    esi,eax
 80491b2:	c1 ee 05             	shr    esi,0x5
 80491b5:	c1 e3 04             	shl    ebx,0x4
 80491b8:	31 f3                	xor    ebx,esi
 80491ba:	01 c3                	add    ebx,eax
 80491bc:	81 f3 47 e1 5a eb    	xor    ebx,0xeb5ae147
 80491c2:	29 da                	sub    edx,ebx
 80491c4:	89 d3                	mov    ebx,edx
 80491c6:	89 d6                	mov    esi,edx
 80491c8:	c1 ee 05             	shr    esi,0x5
 80491cb:	c1 e3 04             	shl    ebx,0x4
 80491ce:	31 f3                	xor    ebx,esi
 80491d0:	01 d3                	add    ebx,edx
 80491d2:	81 f3 47 e1 5a eb    	xor    ebx,0xeb5ae147
 80491d8:	29 d8                	sub    eax,ebx
 80491da:	89 c3                	mov    ebx,eax
 80491dc:	89 c6                	mov    esi,eax
 80491de:	c1 ee 05             	shr    esi,0x5
 80491e1:	c1 e3 04             	shl    ebx,0x4
 80491e4:	31 f3                	xor    ebx,esi
 80491e6:	01 c3                	add    ebx,eax
 80491e8:	81 f3 ac 78 49 2f    	xor    ebx,0x2f4978ac
 80491ee:	29 da                	sub    edx,ebx
 80491f0:	89 d3                	mov    ebx,edx
 80491f2:	89 d6                	mov    esi,edx
 80491f4:	c1 ee 05             	shr    esi,0x5
 80491f7:	c1 e3 04             	shl    ebx,0x4
 80491fa:	31 f3                	xor    ebx,esi
 80491fc:	01 d3                	add    ebx,edx
 80491fe:	81 f3 5d 63 74 39    	xor    ebx,0x3974635d
 8049204:	29 d8                	sub    eax,ebx
 8049206:	89 c3                	mov    ebx,eax
 8049208:	89 c6                	mov    esi,eax
 804920a:	c1 ee 05             	shr    esi,0x5
 804920d:	c1 e3 04             	shl    ebx,0x4
 8049210:	31 f3                	xor    ebx,esi
 8049212:	01 c3                	add    ebx,eax
 8049214:	81 f3 f3 1e ec 5b    	xor    ebx,0x5bec1ef3
 804921a:	29 da                	sub    edx,ebx
 804921c:	89 d3                	mov    ebx,edx
 804921e:	89 d6                	mov    esi,edx
 8049220:	c1 ee 05             	shr    esi,0x5
 8049223:	c1 e3 04             	shl    ebx,0x4
 8049226:	31 f3                	xor    ebx,esi
 8049228:	01 d3                	add    ebx,edx
 804922a:	81 f3 a4 e9 3c 9b    	xor    ebx,0x9b3ce9a4
 8049230:	29 d8                	sub    eax,ebx
 8049232:	89 c3                	mov    ebx,eax
 8049234:	89 c6                	mov    esi,eax
 8049236:	c1 ee 05             	shr    esi,0x5
 8049239:	c1 e3 04             	shl    ebx,0x4
 804923c:	31 f3                	xor    ebx,esi
 804923e:	01 c3                	add    ebx,eax
 8049240:	81 f3 eb 6f 05 fd    	xor    ebx,0xfd056feb
 8049246:	29 da                	sub    edx,ebx
 8049248:	89 d3                	mov    ebx,edx
 804924a:	89 d6                	mov    esi,edx
 804924c:	c1 ee 05             	shr    esi,0x5
 804924f:	c1 e3 04             	shl    ebx,0x4
 8049252:	31 f3                	xor    ebx,esi
 8049254:	01 d3                	add    ebx,edx
 8049256:	81 f3 3a a5 b4 bd    	xor    ebx,0xbdb4a53a
 804925c:	29 d8                	sub    eax,ebx
 804925e:	89 c3                	mov    ebx,eax
 8049260:	89 c6                	mov    esi,eax
 8049262:	c1 ee 05             	shr    esi,0x5
 8049265:	c1 e3 04             	shl    ebx,0x4
 8049268:	31 f3                	xor    ebx,esi
 804926a:	01 c3                	add    ebx,eax
 804926c:	81 f3 63 fa 7c 72    	xor    ebx,0x727cfa63
 8049272:	29 da                	sub    edx,ebx
 8049274:	89 d3                	mov    ebx,edx
 8049276:	89 d6                	mov    esi,edx
 8049278:	c1 ee 05             	shr    esi,0x5
 804927b:	c1 e3 04             	shl    ebx,0x4
 804927e:	31 f3                	xor    ebx,esi
 8049280:	01 d3                	add    ebx,edx
 8049282:	81 f3 81 0b a3 54    	xor    ebx,0x54a30b81
 8049288:	29 d8                	sub    eax,ebx
 804928a:	89 c3                	mov    ebx,eax
 804928c:	89 c6                	mov    esi,eax
 804928e:	c1 ee 05             	shr    esi,0x5
 8049291:	c1 e3 04             	shl    ebx,0x4
 8049294:	31 f3                	xor    ebx,esi
 8049296:	01 c3                	add    ebx,eax
 8049298:	81 f3 c8 91 6b b6    	xor    ebx,0xb66b91c8
 804929e:	29 da                	sub    edx,ebx
 80492a0:	89 d3                	mov    ebx,edx
 80492a2:	89 d6                	mov    esi,edx
 80492a4:	c1 e3 04             	shl    ebx,0x4
 80492a7:	c1 ee 05             	shr    esi,0x5
 80492aa:	31 f3                	xor    ebx,esi
 80492ac:	01 d3                	add    ebx,edx
 80492ae:	81 f3 aa 80 45 d4    	xor    ebx,0xd44580aa
 80492b4:	29 d8                	sub    eax,ebx
 80492b6:	89 c3                	mov    ebx,eax
 80492b8:	89 c6                	mov    esi,eax
 80492ba:	c1 ee 05             	shr    esi,0x5
 80492bd:	c1 e3 04             	shl    ebx,0x4
 80492c0:	31 f3                	xor    ebx,esi
 80492c2:	01 c3                	add    ebx,eax
 80492c4:	81 f3 0f 38 0e e3    	xor    ebx,0xe30e380f
 80492ca:	29 da                	sub    edx,ebx
 80492cc:	89 d3                	mov    ebx,edx
 80492ce:	89 d6                	mov    esi,edx
 80492d0:	c1 ee 05             	shr    esi,0x5
 80492d3:	c1 e3 04             	shl    ebx,0x4
 80492d6:	31 f3                	xor    ebx,esi
 80492d8:	01 d3                	add    ebx,edx
 80492da:	81 f3 c0 02 5f 22    	xor    ebx,0x225f02c0
 80492e0:	29 d8                	sub    eax,ebx
 80492e2:	89 c3                	mov    ebx,eax
 80492e4:	89 c6                	mov    esi,eax
 80492e6:	c1 ee 05             	shr    esi,0x5
 80492e9:	c1 e3 04             	shl    ebx,0x4
 80492ec:	31 f3                	xor    ebx,esi
 80492ee:	01 c3                	add    ebx,eax
 80492f0:	81 f3 07 89 27 84    	xor    ebx,0x84278907
 80492f6:	29 da                	sub    edx,ebx
 80492f8:	89 d3                	mov    ebx,edx
 80492fa:	89 d6                	mov    esi,edx
 80492fc:	c1 ee 05             	shr    esi,0x5
 80492ff:	c1 e3 04             	shl    ebx,0x4
 8049302:	31 f3                	xor    ebx,esi
 8049304:	01 d3                	add    ebx,edx
 8049306:	81 f3 07 89 27 84    	xor    ebx,0x84278907
 804930c:	29 d8                	sub    eax,ebx
 804930e:	89 c3                	mov    ebx,eax
 8049310:	89 c6                	mov    esi,eax
 8049312:	c1 ee 05             	shr    esi,0x5
 8049315:	c1 e3 04             	shl    ebx,0x4
 8049318:	31 f3                	xor    ebx,esi
 804931a:	01 c3                	add    ebx,eax
 804931c:	81 f3 7f 13 9f f9    	xor    ebx,0xf99f137f
 8049322:	29 da                	sub    edx,ebx
 8049324:	89 d3                	mov    ebx,edx
 8049326:	89 d6                	mov    esi,edx
 8049328:	c1 ee 05             	shr    esi,0x5
 804932b:	c1 e3 04             	shl    ebx,0x4
 804932e:	31 f3                	xor    ebx,esi
 8049330:	01 d3                	add    ebx,edx
 8049332:	81 f3 9d 44 9f a6    	xor    ebx,0xa69f449d
 8049338:	29 d8                	sub    eax,ebx
 804933a:	89 c3                	mov    ebx,eax
 804933c:	89 c6                	mov    esi,eax
 804933e:	c1 ee 05             	shr    esi,0x5
 8049341:	c1 e3 04             	shl    ebx,0x4
 8049344:	31 f3                	xor    ebx,esi
 8049346:	01 c3                	add    ebx,eax
 8049348:	81 f3 e4 aa 8d 3d    	xor    ebx,0x3d8daae4
 804934e:	29 da                	sub    edx,ebx
 8049350:	89 d3                	mov    ebx,edx
 8049352:	89 d6                	mov    esi,edx
 8049354:	c1 ee 05             	shr    esi,0x5
 8049357:	c1 e3 04             	shl    ebx,0x4
 804935a:	31 f3                	xor    ebx,esi
 804935c:	01 d3                	add    ebx,edx
 804935e:	81 f3 e4 aa 8d 3d    	xor    ebx,0x3d8daae4
 8049364:	29 d8                	sub    eax,ebx
 8049366:	89 c3                	mov    ebx,eax
 8049368:	89 c6                	mov    esi,eax
 804936a:	c1 ee 05             	shr    esi,0x5
 804936d:	c1 e3 04             	shl    ebx,0x4
 8049370:	31 f3                	xor    ebx,esi
 8049372:	01 c3                	add    ebx,eax
 8049374:	81 f3 2b 51 30 6a    	xor    ebx,0x6a30512b
 804937a:	29 da                	sub    edx,ebx
 804937c:	89 d3                	mov    ebx,edx
 804937e:	89 d6                	mov    esi,edx
 8049380:	c1 ee 05             	shr    esi,0x5
 8049383:	c1 e3 04             	shl    ebx,0x4
 8049386:	31 f3                	xor    ebx,esi
 8049388:	01 d3                	add    ebx,edx
 804938a:	81 f3 0d 20 30 bd    	xor    ebx,0xbd30200d
 8049390:	29 d8                	sub    eax,ebx
 8049392:	89 c3                	mov    ebx,eax
 8049394:	89 c6                	mov    esi,eax
 8049396:	c1 ee 05             	shr    esi,0x5
 8049399:	c1 e3 04             	shl    ebx,0x4
 804939c:	31 f3                	xor    ebx,esi
 804939e:	01 c3                	add    ebx,eax
 80493a0:	81 f3 23 a2 49 0b    	xor    ebx,0xb49a223
 80493a6:	29 da                	sub    edx,ebx
 80493a8:	89 d3                	mov    ebx,edx
 80493aa:	89 d6                	mov    esi,edx
 80493ac:	c1 ee 05             	shr    esi,0x5
 80493af:	c1 e3 04             	shl    ebx,0x4
 80493b2:	31 f3                	xor    ebx,esi
 80493b4:	01 d3                	add    ebx,edx
 80493b6:	81 f3 54 a6 f8 1e    	xor    ebx,0x1ef8a654
 80493bc:	29 d8                	sub    eax,ebx
 80493be:	89 c3                	mov    ebx,eax
 80493c0:	89 c6                	mov    esi,eax
 80493c2:	c1 ee 05             	shr    esi,0x5
 80493c5:	c1 e3 04             	shl    ebx,0x4
 80493c8:	31 f3                	xor    ebx,esi
 80493ca:	01 c3                	add    ebx,eax
 80493cc:	81 f3 9b 2c c1 80    	xor    ebx,0x80c12c9b
 80493d2:	29 da                	sub    edx,ebx
 80493d4:	89 d3                	mov    ebx,edx
 80493d6:	89 d6                	mov    esi,edx
 80493d8:	c1 ee 05             	shr    esi,0x5
 80493db:	c1 e3 04             	shl    ebx,0x4
 80493de:	31 f3                	xor    ebx,esi
 80493e0:	01 d3                	add    ebx,edx
 80493e2:	81 f3 6a 28 12 6d    	xor    ebx,0x6d12286a
 80493e8:	29 d8                	sub    eax,ebx
 80493ea:	89 c3                	mov    ebx,eax
 80493ec:	89 c6                	mov    esi,eax
 80493ee:	c1 ee 05             	shr    esi,0x5
 80493f1:	c1 e3 04             	shl    ebx,0x4
 80493f4:	31 f3                	xor    ebx,esi
 80493f6:	01 c3                	add    ebx,eax
 80493f8:	81 f3 00 c4 af c4    	xor    ebx,0xc4afc400
 80493fe:	29 da                	sub    edx,ebx
 8049400:	89 d3                	mov    ebx,edx
 8049402:	89 d6                	mov    esi,edx
 8049404:	c1 e3 04             	shl    ebx,0x4
 8049407:	c1 ee 05             	shr    esi,0x5
 804940a:	31 f3                	xor    ebx,esi
 804940c:	01 d3                	add    ebx,edx
 804940e:	81 f3 00 e4 89 8f    	xor    ebx,0x8f89e400
 8049414:	29 d8                	sub    eax,ebx
 8049416:	89 c3                	mov    ebx,eax
 8049418:	89 c6                	mov    esi,eax
 804941a:	c1 ee 05             	shr    esi,0x5
 804941d:	c1 e3 04             	shl    ebx,0x4
 8049420:	31 f3                	xor    ebx,esi
 8049422:	01 c3                	add    ebx,eax
 8049424:	81 f3 47 6a 52 f1    	xor    ebx,0xf1526a47
 804942a:	29 da                	sub    edx,ebx
 804942c:	89 d3                	mov    ebx,edx
 804942e:	89 d6                	mov    esi,edx
 8049430:	c1 ee 05             	shr    esi,0x5
 8049433:	c1 e3 04             	shl    ebx,0x4
 8049436:	31 f3                	xor    ebx,esi
 8049438:	01 d3                	add    ebx,edx
 804943a:	81 f3 47 4a 78 26    	xor    ebx,0x26784a47
 8049440:	29 d8                	sub    eax,ebx
 8049442:	89 c3                	mov    ebx,eax
 8049444:	89 c6                	mov    esi,eax
 8049446:	c1 ee 05             	shr    esi,0x5
 8049449:	c1 e3 04             	shl    ebx,0x4
 804944c:	31 f3                	xor    ebx,esi
 804944e:	01 c3                	add    ebx,eax
 8049450:	81 f3 3f bb 6b 92    	xor    ebx,0x926bbb3f
 8049456:	29 da                	sub    edx,ebx
 8049458:	89 d3                	mov    ebx,edx
 804945a:	89 d6                	mov    esi,edx
 804945c:	c1 ee 05             	shr    esi,0x5
 804945f:	c1 e3 04             	shl    ebx,0x4
 8049462:	31 f3                	xor    ebx,esi
 8049464:	01 d3                	add    ebx,edx
 8049466:	81 f3 70 bf 1a a6    	xor    ebx,0xa61abf70
 804946c:	29 d8                	sub    eax,ebx
 804946e:	89 c3                	mov    ebx,eax
 8049470:	89 c6                	mov    esi,eax
 8049472:	c1 ee 05             	shr    esi,0x5
 8049475:	c1 e3 04             	shl    ebx,0x4
 8049478:	31 f3                	xor    ebx,esi
 804947a:	01 c3                	add    ebx,eax
 804947c:	81 f3 b7 45 e3 07    	xor    ebx,0x7e345b7
 8049482:	29 da                	sub    edx,ebx
 8049484:	89 d3                	mov    ebx,edx
 8049486:	89 d6                	mov    esi,edx
 8049488:	c1 ee 05             	shr    esi,0x5
 804948b:	c1 e3 04             	shl    ebx,0x4
 804948e:	31 f3                	xor    ebx,esi
 8049490:	01 d3                	add    ebx,edx
 8049492:	81 f3 b7 45 e3 07    	xor    ebx,0x7e345b7
 8049498:	29 d8                	sub    eax,ebx
 804949a:	89 c3                	mov    ebx,eax
 804949c:	89 c6                	mov    esi,eax
 804949e:	c1 ee 05             	shr    esi,0x5
 80494a1:	c1 e3 04             	shl    ebx,0x4
 80494a4:	31 f3                	xor    ebx,esi
 80494a6:	01 c3                	add    ebx,eax
 80494a8:	81 f3 1c dd d1 4b    	xor    ebx,0x4bd1dd1c
 80494ae:	29 da                	sub    edx,ebx
 80494b0:	89 d3                	mov    ebx,edx
 80494b2:	89 d6                	mov    esi,edx
 80494b4:	c1 ee 05             	shr    esi,0x5
 80494b7:	c1 e3 04             	shl    ebx,0x4
 80494ba:	31 f3                	xor    ebx,esi
 80494bc:	01 d3                	add    ebx,edx
 80494be:	81 f3 cd c7 fc 55    	xor    ebx,0x55fcc7cd
 80494c4:	29 d8                	sub    eax,ebx
 80494c6:	89 c3                	mov    ebx,eax
 80494c8:	89 c6                	mov    esi,eax
 80494ca:	c1 ee 05             	shr    esi,0x5
 80494cd:	c1 e3 04             	shl    ebx,0x4
 80494d0:	31 f3                	xor    ebx,esi
 80494d2:	01 c3                	add    ebx,eax
 80494d4:	81 f3 63 83 74 78    	xor    ebx,0x78748363
 80494da:	29 da                	sub    edx,ebx
 80494dc:	89 d3                	mov    ebx,edx
 80494de:	89 d6                	mov    esi,edx
 80494e0:	c1 ee 05             	shr    esi,0x5
 80494e3:	c1 e3 04             	shl    ebx,0x4
 80494e6:	31 f3                	xor    ebx,esi
 80494e8:	01 d3                	add    ebx,edx
 80494ea:	81 f3 63 83 74 78    	xor    ebx,0x78748363
 80494f0:	29 d8                	sub    eax,ebx
 80494f2:	89 c3                	mov    ebx,eax
 80494f4:	89 c6                	mov    esi,eax
 80494f6:	c1 ee 05             	shr    esi,0x5
 80494f9:	c1 e3 04             	shl    ebx,0x4
 80494fc:	31 f3                	xor    ebx,esi
 80494fe:	01 c3                	add    ebx,eax
 8049500:	81 f3 5b d4 8d 19    	xor    ebx,0x198dd45b
 8049506:	29 da                	sub    edx,ebx
 8049508:	89 d3                	mov    ebx,edx
 804950a:	89 d6                	mov    esi,edx
 804950c:	c1 ee 05             	shr    esi,0x5
 804950f:	c1 e3 04             	shl    ebx,0x4
 8049512:	31 f3                	xor    ebx,esi
 8049514:	01 d3                	add    ebx,edx
 8049516:	81 f3 aa e9 62 0f    	xor    ebx,0xf62e9aa
 804951c:	29 d8                	sub    eax,ebx
 804951e:	89 c3                	mov    ebx,eax
 8049520:	89 c6                	mov    esi,eax
 8049522:	c1 ee 05             	shr    esi,0x5
 8049525:	c1 e3 04             	shl    ebx,0x4
 8049528:	31 f3                	xor    ebx,esi
 804952a:	01 c3                	add    ebx,eax
 804952c:	81 f3 d3 5e 05 8f    	xor    ebx,0x8f055ed3
 8049532:	29 da                	sub    edx,ebx
 8049534:	89 d3                	mov    ebx,edx
 8049536:	89 d6                	mov    esi,edx
 8049538:	c1 ee 05             	shr    esi,0x5
 804953b:	c1 e3 04             	shl    ebx,0x4
 804953e:	31 f3                	xor    ebx,esi
 8049540:	01 d3                	add    ebx,edx
 8049542:	81 f3 f1 6f 2b 71    	xor    ebx,0x712b6ff1
 8049548:	29 d8                	sub    eax,ebx
 804954a:	89 c3                	mov    ebx,eax
 804954c:	89 c6                	mov    esi,eax
 804954e:	c1 ee 05             	shr    esi,0x5
 8049551:	c1 e3 04             	shl    ebx,0x4
 8049554:	31 f3                	xor    ebx,esi
 8049556:	01 c3                	add    ebx,eax
 8049558:	81 f3 38 f6 f3 d2    	xor    ebx,0xd2f3f638
 804955e:	29 da                	sub    edx,ebx
 8049560:	89 d3                	mov    ebx,edx
 8049562:	89 d6                	mov    esi,edx
 8049564:	c1 e3 04             	shl    ebx,0x4
 8049567:	c1 ee 05             	shr    esi,0x5
 804956a:	31 f3                	xor    ebx,esi
 804956c:	01 d3                	add    ebx,edx
 804956e:	81 f3 1a e5 cd f0    	xor    ebx,0xf0cde51a
 8049574:	29 d8                	sub    eax,ebx
 8049576:	89 c3                	mov    ebx,eax
 8049578:	89 c6                	mov    esi,eax
 804957a:	c1 ee 05             	shr    esi,0x5
 804957d:	c1 e3 04             	shl    ebx,0x4
 8049580:	31 f3                	xor    ebx,esi
 8049582:	01 c3                	add    ebx,eax
 8049584:	81 f3 7f 9c 96 ff    	xor    ebx,0xff969c7f
 804958a:	29 da                	sub    edx,ebx
 804958c:	89 d3                	mov    ebx,edx
 804958e:	89 d6                	mov    esi,edx
 8049590:	c1 ee 05             	shr    esi,0x5
 8049593:	c1 e3 04             	shl    ebx,0x4
 8049596:	31 f3                	xor    ebx,esi
 8049598:	01 d3                	add    ebx,edx
 804959a:	81 f3 30 67 e7 3e    	xor    ebx,0x3ee76730
 80495a0:	29 d8                	sub    eax,ebx
 80495a2:	89 c3                	mov    ebx,eax
 80495a4:	89 c6                	mov    esi,eax
 80495a6:	c1 ee 05             	shr    esi,0x5
 80495a9:	c1 e3 04             	shl    ebx,0x4
 80495ac:	31 f3                	xor    ebx,esi
 80495ae:	01 c3                	add    ebx,eax
 80495b0:	81 f3 77 ed af a0    	xor    ebx,0xa0afed77
 80495b6:	29 da                	sub    edx,ebx
 80495b8:	89 d3                	mov    ebx,edx
 80495ba:	89 d6                	mov    esi,edx
 80495bc:	c1 ee 05             	shr    esi,0x5
 80495bf:	c1 e3 04             	shl    ebx,0x4
 80495c2:	31 f3                	xor    ebx,esi
 80495c4:	01 d3                	add    ebx,edx
 80495c6:	81 f3 c6 22 5f 61    	xor    ebx,0x615f22c6
 80495cc:	29 d8                	sub    eax,ebx
 80495ce:	89 c3                	mov    ebx,eax
 80495d0:	89 c6                	mov    esi,eax
 80495d2:	c1 ee 05             	shr    esi,0x5
 80495d5:	c1 e3 04             	shl    ebx,0x4
 80495d8:	31 f3                	xor    ebx,esi
 80495da:	01 c3                	add    ebx,eax
 80495dc:	81 f3 ef 77 27 16    	xor    ebx,0x162777ef
 80495e2:	29 da                	sub    edx,ebx
 80495e4:	89 d3                	mov    ebx,edx
 80495e6:	89 d6                	mov    esi,edx
 80495e8:	c1 ee 05             	shr    esi,0x5
 80495eb:	c1 e3 04             	shl    ebx,0x4
 80495ee:	31 f3                	xor    ebx,esi
 80495f0:	01 d3                	add    ebx,edx
 80495f2:	81 f3 0d 89 4d f8    	xor    ebx,0xf84d890d
 80495f8:	29 d8                	sub    eax,ebx
 80495fa:	89 c3                	mov    ebx,eax
 80495fc:	89 c6                	mov    esi,eax
 80495fe:	c1 ee 05             	shr    esi,0x5
 8049601:	c1 e3 04             	shl    ebx,0x4
 8049604:	31 f3                	xor    ebx,esi
 8049606:	01 c3                	add    ebx,eax
 8049608:	81 f3 54 0f 16 5a    	xor    ebx,0x5a160f54
 804960e:	29 da                	sub    edx,ebx
 8049610:	89 d3                	mov    ebx,edx
 8049612:	89 d6                	mov    esi,edx
 8049614:	c1 ee 05             	shr    esi,0x5
 8049617:	c1 e3 04             	shl    ebx,0x4
 804961a:	31 f3                	xor    ebx,esi
 804961c:	01 d3                	add    ebx,edx
 804961e:	81 f3 54 0f 16 5a    	xor    ebx,0x5a160f54
 8049624:	29 d8                	sub    eax,ebx
 8049626:	89 c3                	mov    ebx,eax
 8049628:	89 c6                	mov    esi,eax
 804962a:	c1 ee 05             	shr    esi,0x5
 804962d:	c1 e3 04             	shl    ebx,0x4
 8049630:	31 f3                	xor    ebx,esi
 8049632:	01 c3                	add    ebx,eax
 8049634:	81 f3 9b b5 b8 86    	xor    ebx,0x86b8b59b
 804963a:	29 da                	sub    edx,ebx
 804963c:	89 d3                	mov    ebx,edx
 804963e:	89 d6                	mov    esi,edx
 8049640:	c1 ee 05             	shr    esi,0x5
 8049643:	c1 e3 04             	shl    ebx,0x4
 8049646:	31 f3                	xor    ebx,esi
 8049648:	01 d3                	add    ebx,edx
 804964a:	81 f3 7d 84 b8 d9    	xor    ebx,0xd9b8847d
 8049650:	29 d8                	sub    eax,ebx
 8049652:	89 c3                	mov    ebx,eax
 8049654:	89 c6                	mov    esi,eax
 8049656:	c1 ee 05             	shr    esi,0x5
 8049659:	c1 e3 04             	shl    ebx,0x4
 804965c:	31 f3                	xor    ebx,esi
 804965e:	01 c3                	add    ebx,eax
 8049660:	81 f3 93 06 d2 27    	xor    ebx,0x27d20693
 8049666:	29 da                	sub    edx,ebx
 8049668:	89 d3                	mov    ebx,edx
 804966a:	89 d6                	mov    esi,edx
 804966c:	c1 ee 05             	shr    esi,0x5
 804966f:	c1 e3 04             	shl    ebx,0x4
 8049672:	31 f3                	xor    ebx,esi
 8049674:	01 d3                	add    ebx,edx
 8049676:	81 f3 93 06 d2 27    	xor    ebx,0x27d20693
 804967c:	29 d8                	sub    eax,ebx
 804967e:	89 c3                	mov    ebx,eax
 8049680:	89 c6                	mov    esi,eax
 8049682:	c1 ee 05             	shr    esi,0x5
 8049685:	c1 e3 04             	shl    ebx,0x4
 8049688:	31 f3                	xor    ebx,esi
 804968a:	01 c3                	add    ebx,eax
 804968c:	81 f3 0b 91 49 9d    	xor    ebx,0x9d49910b
 8049692:	29 da                	sub    edx,ebx
 8049694:	89 d3                	mov    ebx,edx
 8049696:	89 d6                	mov    esi,edx
 8049698:	c1 ee 05             	shr    esi,0x5
 804969b:	c1 e3 04             	shl    ebx,0x4
 804969e:	31 f3                	xor    ebx,esi
 80496a0:	01 d3                	add    ebx,edx
 80496a2:	81 f3 29 c2 49 4a    	xor    ebx,0x4a49c229
 80496a8:	29 d8                	sub    eax,ebx
 80496aa:	89 c3                	mov    ebx,eax
 80496ac:	89 c6                	mov    esi,eax
 80496ae:	c1 ee 05             	shr    esi,0x5
 80496b1:	c1 e3 04             	shl    ebx,0x4
 80496b4:	31 f3                	xor    ebx,esi
 80496b6:	01 c3                	add    ebx,eax
 80496b8:	81 f3 70 28 38 e1    	xor    ebx,0xe1382870
 80496be:	29 da                	sub    edx,ebx
 80496c0:	89 d3                	mov    ebx,edx
 80496c2:	89 d6                	mov    esi,edx
 80496c4:	c1 e3 04             	shl    ebx,0x4
 80496c7:	c1 ee 05             	shr    esi,0x5
 80496ca:	31 f3                	xor    ebx,esi
 80496cc:	01 d3                	add    ebx,edx
 80496ce:	81 f3 70 28 38 e1    	xor    ebx,0xe1382870
 80496d4:	29 d8                	sub    eax,ebx
 80496d6:	89 c3                	mov    ebx,eax
 80496d8:	89 c6                	mov    esi,eax
 80496da:	c1 ee 05             	shr    esi,0x5
 80496dd:	c1 e3 04             	shl    ebx,0x4
 80496e0:	31 f3                	xor    ebx,esi
 80496e2:	01 c3                	add    ebx,eax
 80496e4:	81 f3 b7 ce da 0d    	xor    ebx,0xddaceb7
 80496ea:	29 da                	sub    edx,ebx
 80496ec:	89 d3                	mov    ebx,edx
 80496ee:	89 d6                	mov    esi,edx
 80496f0:	c1 ee 05             	shr    esi,0x5
 80496f3:	c1 e3 04             	shl    ebx,0x4
 80496f6:	31 f3                	xor    ebx,esi
 80496f8:	01 d3                	add    ebx,edx
 80496fa:	81 f3 b7 ae 00 43    	xor    ebx,0x4300aeb7
 8049700:	29 d8                	sub    eax,ebx
 8049702:	89 c3                	mov    ebx,eax
 8049704:	89 c6                	mov    esi,eax
 8049706:	c1 ee 05             	shr    esi,0x5
 8049709:	c1 e3 04             	shl    ebx,0x4
 804970c:	31 f3                	xor    ebx,esi
 804970e:	01 c3                	add    ebx,eax
 8049710:	81 f3 af 1f f4 ae    	xor    ebx,0xaef41faf
 8049716:	29 da                	sub    edx,ebx
 8049718:	89 d3                	mov    ebx,edx
 804971a:	89 d6                	mov    esi,edx
 804971c:	c1 ee 05             	shr    esi,0x5
 804971f:	c1 e3 04             	shl    ebx,0x4
 8049722:	31 f3                	xor    ebx,esi
 8049724:	01 d3                	add    ebx,edx
 8049726:	81 f3 e0 23 a3 c2    	xor    ebx,0xc2a323e0
 804972c:	29 d8                	sub    eax,ebx
 804972e:	89 c3                	mov    ebx,eax
 8049730:	89 c6                	mov    esi,eax
 8049732:	c1 ee 05             	shr    esi,0x5
 8049735:	c1 e3 04             	shl    ebx,0x4
 8049738:	31 f3                	xor    ebx,esi
 804973a:	01 c3                	add    ebx,eax
 804973c:	81 f3 27 aa 6b 24    	xor    ebx,0x246baa27
 8049742:	29 da                	sub    edx,ebx
 8049744:	89 d3                	mov    ebx,edx
 8049746:	89 d6                	mov    esi,edx
 8049748:	c1 ee 05             	shr    esi,0x5
 804974b:	c1 e3 04             	shl    ebx,0x4
 804974e:	31 f3                	xor    ebx,esi
 8049750:	01 d3                	add    ebx,edx
 8049752:	81 f3 f6 a5 bc 10    	xor    ebx,0x10bca5f6
 8049758:	29 d8                	sub    eax,ebx
 804975a:	89 c3                	mov    ebx,eax
 804975c:	89 c6                	mov    esi,eax
 804975e:	c1 ee 05             	shr    esi,0x5
 8049761:	c1 e3 04             	shl    ebx,0x4
 8049764:	31 f3                	xor    ebx,esi
 8049766:	01 c3                	add    ebx,eax
 8049768:	81 f3 8c 41 5a 68    	xor    ebx,0x685a418c
 804976e:	29 da                	sub    edx,ebx
 8049770:	89 d3                	mov    ebx,edx
 8049772:	89 d6                	mov    esi,edx
 8049774:	c1 ee 05             	shr    esi,0x5
 8049777:	c1 e3 04             	shl    ebx,0x4
 804977a:	31 f3                	xor    ebx,esi
 804977c:	01 d3                	add    ebx,edx
 804977e:	81 f3 8c 61 34 33    	xor    ebx,0x3334618c
 8049784:	29 d8                	sub    eax,ebx
 8049786:	89 c3                	mov    ebx,eax
 8049788:	89 c6                	mov    esi,eax
 804978a:	c1 ee 05             	shr    esi,0x5
 804978d:	c1 e3 04             	shl    ebx,0x4
 8049790:	31 f3                	xor    ebx,esi
 8049792:	01 c3                	add    ebx,eax
 8049794:	81 f3 d3 e7 fc 94    	xor    ebx,0x94fce7d3
 804979a:	29 da                	sub    edx,ebx
 804979c:	89 d3                	mov    ebx,edx
 804979e:	89 d6                	mov    esi,edx
 80497a0:	c1 ee 05             	shr    esi,0x5
 80497a3:	c1 e3 04             	shl    ebx,0x4
 80497a6:	31 f3                	xor    ebx,esi
 80497a8:	01 d3                	add    ebx,edx
 80497aa:	81 f3 d3 e7 fc 94    	xor    ebx,0x94fce7d3
 80497b0:	29 d8                	sub    eax,ebx
 80497b2:	89 c3                	mov    ebx,eax
 80497b4:	89 c6                	mov    esi,eax
 80497b6:	c1 ee 05             	shr    esi,0x5
 80497b9:	c1 e3 04             	shl    ebx,0x4
 80497bc:	31 f3                	xor    ebx,esi
 80497be:	01 c3                	add    ebx,eax
 80497c0:	81 f3 cb 38 16 36    	xor    ebx,0x361638cb
 80497c6:	29 da                	sub    edx,ebx
 80497c8:	89 d3                	mov    ebx,edx
 80497ca:	89 d6                	mov    esi,edx
 80497cc:	c1 ee 05             	shr    esi,0x5
 80497cf:	c1 e3 04             	shl    ebx,0x4
 80497d2:	31 f3                	xor    ebx,esi
 80497d4:	01 d3                	add    ebx,edx
 80497d6:	81 f3 1a 4e eb 2b    	xor    ebx,0x2beb4e1a
 80497dc:	29 d8                	sub    eax,ebx
 80497de:	89 c3                	mov    ebx,eax
 80497e0:	89 c6                	mov    esi,eax
 80497e2:	c1 ee 05             	shr    esi,0x5
 80497e5:	c1 e3 04             	shl    ebx,0x4
 80497e8:	31 f3                	xor    ebx,esi
 80497ea:	01 c3                	add    ebx,eax
 80497ec:	81 f3 43 c3 8d ab    	xor    ebx,0xab8dc343
 80497f2:	29 da                	sub    edx,ebx
 80497f4:	89 d3                	mov    ebx,edx
 80497f6:	89 d6                	mov    esi,edx
 80497f8:	c1 ee 05             	shr    esi,0x5
 80497fb:	c1 e3 04             	shl    ebx,0x4
 80497fe:	31 f3                	xor    ebx,esi
 8049800:	01 d3                	add    ebx,edx
 8049802:	81 f3 43 c3 8d ab    	xor    ebx,0xab8dc343
 8049808:	29 d8                	sub    eax,ebx
 804980a:	89 c3                	mov    ebx,eax
 804980c:	89 c6                	mov    esi,eax
 804980e:	c1 ee 05             	shr    esi,0x5
 8049811:	c1 e3 04             	shl    ebx,0x4
 8049814:	31 f3                	xor    ebx,esi
 8049816:	01 c3                	add    ebx,eax
 8049818:	81 f3 a8 5a 7c ef    	xor    ebx,0xef7c5aa8
 804981e:	29 da                	sub    edx,ebx
 8049820:	89 d3                	mov    ebx,edx
 8049822:	89 d6                	mov    esi,edx
 8049824:	c1 e3 04             	shl    ebx,0x4
 8049827:	c1 ee 05             	shr    esi,0x5
 804982a:	31 f3                	xor    ebx,esi
 804982c:	01 d3                	add    ebx,edx
 804982e:	81 f3 59 45 a7 f9    	xor    ebx,0xf9a74559
 8049834:	29 d8                	sub    eax,ebx
 8049836:	89 c3                	mov    ebx,eax
 8049838:	89 c6                	mov    esi,eax
 804983a:	c1 ee 05             	shr    esi,0x5
 804983d:	c1 e3 04             	shl    ebx,0x4
 8049840:	31 f3                	xor    ebx,esi
 8049842:	01 c3                	add    ebx,eax
 8049844:	81 f3 ef 00 1f 1c    	xor    ebx,0x1c1f00ef
 804984a:	29 da                	sub    edx,ebx
 804984c:	89 d3                	mov    ebx,edx
 804984e:	89 d6                	mov    esi,edx
 8049850:	c1 ee 05             	shr    esi,0x5
 8049853:	c1 e3 04             	shl    ebx,0x4
 8049856:	31 f3                	xor    ebx,esi
 8049858:	01 d3                	add    ebx,edx
 804985a:	81 f3 ef 00 1f 1c    	xor    ebx,0x1c1f00ef
 8049860:	29 d8                	sub    eax,ebx
 8049862:	89 c3                	mov    ebx,eax
 8049864:	89 c6                	mov    esi,eax
 8049866:	c1 ee 05             	shr    esi,0x5
 8049869:	c1 e3 04             	shl    ebx,0x4
 804986c:	31 f3                	xor    ebx,esi
 804986e:	01 c3                	add    ebx,eax
 8049870:	81 f3 e7 51 38 bd    	xor    ebx,0xbd3851e7
 8049876:	29 da                	sub    edx,ebx
 8049878:	89 d3                	mov    ebx,edx
 804987a:	89 d6                	mov    esi,edx
 804987c:	c1 ee 05             	shr    esi,0x5
 804987f:	c1 e3 04             	shl    ebx,0x4
 8049882:	31 f3                	xor    ebx,esi
 8049884:	01 d3                	add    ebx,edx
 8049886:	81 f3 36 87 e7 7d    	xor    ebx,0x7de78736
 804988c:	29 d8                	sub    eax,ebx
 804988e:	89 c3                	mov    ebx,eax
 8049890:	89 c6                	mov    esi,eax
 8049892:	c1 ee 05             	shr    esi,0x5
 8049895:	c1 e3 04             	shl    ebx,0x4
 8049898:	31 f3                	xor    ebx,esi
 804989a:	01 c3                	add    ebx,eax
 804989c:	81 f3 5f dc af 32    	xor    ebx,0x32afdc5f
 80498a2:	29 da                	sub    edx,ebx
 80498a4:	89 d3                	mov    ebx,edx
 80498a6:	89 d6                	mov    esi,edx
 80498a8:	c1 ee 05             	shr    esi,0x5
 80498ab:	c1 e3 04             	shl    ebx,0x4
 80498ae:	31 f3                	xor    ebx,esi
 80498b0:	01 d3                	add    ebx,edx
 80498b2:	81 f3 7d ed d5 14    	xor    ebx,0x14d5ed7d
 80498b8:	29 d8                	sub    eax,ebx
 80498ba:	89 c3                	mov    ebx,eax
 80498bc:	89 c6                	mov    esi,eax
 80498be:	c1 ee 05             	shr    esi,0x5
 80498c1:	c1 e3 04             	shl    ebx,0x4
 80498c4:	31 f3                	xor    ebx,esi
 80498c6:	01 c3                	add    ebx,eax
 80498c8:	81 f3 c4 73 9e 76    	xor    ebx,0x769e73c4
 80498ce:	29 da                	sub    edx,ebx
 80498d0:	89 d3                	mov    ebx,edx
 80498d2:	89 d6                	mov    esi,edx
 80498d4:	c1 ee 05             	shr    esi,0x5
 80498d7:	c1 e3 04             	shl    ebx,0x4
 80498da:	31 f3                	xor    ebx,esi
 80498dc:	01 d3                	add    ebx,edx
 80498de:	81 f3 a6 62 78 94    	xor    ebx,0x947862a6
 80498e4:	29 d8                	sub    eax,ebx
 80498e6:	89 c3                	mov    ebx,eax
 80498e8:	89 c6                	mov    esi,eax
 80498ea:	c1 ee 05             	shr    esi,0x5
 80498ed:	c1 e3 04             	shl    ebx,0x4
 80498f0:	31 f3                	xor    ebx,esi
 80498f2:	01 c3                	add    ebx,eax
 80498f4:	81 f3 0b 1a 41 a3    	xor    ebx,0xa3411a0b
 80498fa:	29 da                	sub    edx,ebx
 80498fc:	89 d3                	mov    ebx,edx
 80498fe:	89 d6                	mov    esi,edx
 8049900:	c1 ee 05             	shr    esi,0x5
 8049903:	c1 e3 04             	shl    ebx,0x4
 8049906:	31 f3                	xor    ebx,esi
 8049908:	01 d3                	add    ebx,edx
 804990a:	81 f3 bc e4 91 e2    	xor    ebx,0xe291e4bc
 8049910:	29 d8                	sub    eax,ebx
 8049912:	89 c3                	mov    ebx,eax
 8049914:	89 c6                	mov    esi,eax
 8049916:	c1 ee 05             	shr    esi,0x5
 8049919:	c1 e3 04             	shl    ebx,0x4
 804991c:	31 f3                	xor    ebx,esi
 804991e:	01 c3                	add    ebx,eax
 8049920:	81 f3 03 6b 5a 44    	xor    ebx,0x445a6b03
 8049926:	29 da                	sub    edx,ebx
 8049928:	89 d3                	mov    ebx,edx
 804992a:	89 d6                	mov    esi,edx
 804992c:	c1 ee 05             	shr    esi,0x5
 804992f:	c1 e3 04             	shl    ebx,0x4
 8049932:	31 f3                	xor    ebx,esi
 8049934:	01 d3                	add    ebx,edx
 8049936:	81 f3 52 a0 09 05    	xor    ebx,0x509a052
 804993c:	29 d8                	sub    eax,ebx
 804993e:	89 c3                	mov    ebx,eax
 8049940:	89 c6                	mov    esi,eax
 8049942:	c1 ee 05             	shr    esi,0x5
 8049945:	c1 e3 04             	shl    ebx,0x4
 8049948:	31 f3                	xor    ebx,esi
 804994a:	01 c3                	add    ebx,eax
 804994c:	81 f3 7b f5 d1 b9    	xor    ebx,0xb9d1f57b
 8049952:	29 da                	sub    edx,ebx
 8049954:	89 d3                	mov    ebx,edx
 8049956:	89 d6                	mov    esi,edx
 8049958:	c1 ee 05             	shr    esi,0x5
 804995b:	c1 e3 04             	shl    ebx,0x4
 804995e:	31 f3                	xor    ebx,esi
 8049960:	01 d3                	add    ebx,edx
 8049962:	81 f3 99 26 d2 66    	xor    ebx,0x66d22699
 8049968:	29 d8                	sub    eax,ebx
 804996a:	89 c3                	mov    ebx,eax
 804996c:	89 c6                	mov    esi,eax
 804996e:	c1 ee 05             	shr    esi,0x5
 8049971:	c1 e3 04             	shl    ebx,0x4
 8049974:	31 f3                	xor    ebx,esi
 8049976:	01 c3                	add    ebx,eax
 8049978:	81 f3 e0 8c c0 fd    	xor    ebx,0xfdc08ce0
 804997e:	29 da                	sub    edx,ebx
 8049980:	89 d3                	mov    ebx,edx
 8049982:	89 d6                	mov    esi,edx
 8049984:	c1 e3 04             	shl    ebx,0x4
 8049987:	c1 ee 05             	shr    esi,0x5
 804998a:	31 f3                	xor    ebx,esi
 804998c:	01 d3                	add    ebx,edx
 804998e:	81 f3 e0 8c c0 fd    	xor    ebx,0xfdc08ce0
 8049994:	29 d8                	sub    eax,ebx
 8049996:	89 c3                	mov    ebx,eax
 8049998:	89 c6                	mov    esi,eax
 804999a:	c1 ee 05             	shr    esi,0x5
 804999d:	c1 e3 04             	shl    ebx,0x4
 80499a0:	31 f3                	xor    ebx,esi
 80499a2:	01 c3                	add    ebx,eax
 80499a4:	81 f3 27 33 63 2a    	xor    ebx,0x2a633327
 80499aa:	29 da                	sub    edx,ebx
 80499ac:	89 d3                	mov    ebx,edx
 80499ae:	89 d6                	mov    esi,edx
 80499b0:	c1 ee 05             	shr    esi,0x5
 80499b3:	c1 e3 04             	shl    ebx,0x4
 80499b6:	31 f3                	xor    ebx,esi
 80499b8:	01 d3                	add    ebx,edx
 80499ba:	81 f3 09 02 63 7d    	xor    ebx,0x7d630209
 80499c0:	29 d8                	sub    eax,ebx
 80499c2:	89 c3                	mov    ebx,eax
 80499c4:	89 c6                	mov    esi,eax
 80499c6:	c1 ee 05             	shr    esi,0x5
 80499c9:	c1 e3 04             	shl    ebx,0x4
 80499cc:	31 f3                	xor    ebx,esi
 80499ce:	01 c3                	add    ebx,eax
 80499d0:	81 f3 1f 84 7c cb    	xor    ebx,0xcb7c841f
 80499d6:	29 da                	sub    edx,ebx
 80499d8:	89 d3                	mov    ebx,edx
 80499da:	89 d6                	mov    esi,edx
 80499dc:	c1 ee 05             	shr    esi,0x5
 80499df:	c1 e3 04             	shl    ebx,0x4
 80499e2:	31 f3                	xor    ebx,esi
 80499e4:	01 d3                	add    ebx,edx
 80499e6:	81 f3 1f 84 7c cb    	xor    ebx,0xcb7c841f
 80499ec:	29 d8                	sub    eax,ebx
 80499ee:	89 c3                	mov    ebx,eax
 80499f0:	89 c6                	mov    esi,eax
 80499f2:	c1 ee 05             	shr    esi,0x5
 80499f5:	c1 e3 04             	shl    ebx,0x4
 80499f8:	31 f3                	xor    ebx,esi
 80499fa:	01 c3                	add    ebx,eax
 80499fc:	81 f3 97 0e f4 40    	xor    ebx,0x40f40e97
 8049a02:	29 da                	sub    edx,ebx
 8049a04:	89 d3                	mov    ebx,edx
 8049a06:	89 d6                	mov    esi,edx
 8049a08:	c1 ee 05             	shr    esi,0x5
 8049a0b:	c1 e3 04             	shl    ebx,0x4
 8049a0e:	31 f3                	xor    ebx,esi
 8049a10:	01 d3                	add    ebx,edx
 8049a12:	81 f3 66 0a 45 2d    	xor    ebx,0x2d450a66
 8049a18:	29 d8                	sub    eax,ebx
 8049a1a:	89 c3                	mov    ebx,eax
 8049a1c:	89 c6                	mov    esi,eax
 8049a1e:	c1 ee 05             	shr    esi,0x5
 8049a21:	c1 e3 04             	shl    ebx,0x4
 8049a24:	31 f3                	xor    ebx,esi
 8049a26:	01 c3                	add    ebx,eax
 8049a28:	81 f3 fc a5 e2 84    	xor    ebx,0x84e2a5fc
 8049a2e:	29 da                	sub    edx,ebx
 8049a30:	89 d3                	mov    ebx,edx
 8049a32:	89 d6                	mov    esi,edx
 8049a34:	c1 ee 05             	shr    esi,0x5
 8049a37:	c1 e3 04             	shl    ebx,0x4
 8049a3a:	31 f3                	xor    ebx,esi
 8049a3c:	01 d3                	add    ebx,edx
 8049a3e:	81 f3 fc c5 bc 4f    	xor    ebx,0x4fbcc5fc
 8049a44:	29 d8                	sub    eax,ebx
 8049a46:	89 c3                	mov    ebx,eax
 8049a48:	89 c6                	mov    esi,eax
 8049a4a:	c1 ee 05             	shr    esi,0x5
 8049a4d:	c1 e3 04             	shl    ebx,0x4
 8049a50:	31 f3                	xor    ebx,esi
 8049a52:	01 c3                	add    ebx,eax
 8049a54:	81 f3 43 4c 85 b1    	xor    ebx,0xb1854c43
 8049a5a:	29 da                	sub    edx,ebx
 8049a5c:	89 d3                	mov    ebx,edx
 8049a5e:	89 d6                	mov    esi,edx
 8049a60:	c1 ee 05             	shr    esi,0x5
 8049a63:	c1 e3 04             	shl    ebx,0x4
 8049a66:	31 f3                	xor    ebx,esi
 8049a68:	01 d3                	add    ebx,edx
 8049a6a:	81 f3 43 2c ab e6    	xor    ebx,0xe6ab2c43
 8049a70:	29 d8                	sub    eax,ebx
 8049a72:	89 c3                	mov    ebx,eax
 8049a74:	89 c6                	mov    esi,eax
 8049a76:	c1 ee 05             	shr    esi,0x5
 8049a79:	c1 e3 04             	shl    ebx,0x4
 8049a7c:	31 f3                	xor    ebx,esi
 8049a7e:	01 c3                	add    ebx,eax
 8049a80:	81 f3 3b 9d 9e 52    	xor    ebx,0x529e9d3b
 8049a86:	29 da                	sub    edx,ebx
 8049a88:	89 d3                	mov    ebx,edx
 8049a8a:	89 d6                	mov    esi,edx
 8049a8c:	c1 ee 05             	shr    esi,0x5
 8049a8f:	c1 e3 04             	shl    ebx,0x4
 8049a92:	31 f3                	xor    ebx,esi
 8049a94:	01 d3                	add    ebx,edx
 8049a96:	81 f3 6c a1 4d 66    	xor    ebx,0x664da16c
 8049a9c:	29 d8                	sub    eax,ebx
 8049a9e:	89 c3                	mov    ebx,eax
 8049aa0:	89 c6                	mov    esi,eax
 8049aa2:	c1 ee 05             	shr    esi,0x5
 8049aa5:	c1 e3 04             	shl    ebx,0x4
 8049aa8:	31 f3                	xor    ebx,esi
 8049aaa:	01 c3                	add    ebx,eax
 8049aac:	81 f3 b3 27 16 c8    	xor    ebx,0xc81627b3
 8049ab2:	29 da                	sub    edx,ebx
 8049ab4:	89 d3                	mov    ebx,edx
 8049ab6:	89 d6                	mov    esi,edx
 8049ab8:	c1 ee 05             	shr    esi,0x5
 8049abb:	c1 e3 04             	shl    ebx,0x4
 8049abe:	31 f3                	xor    ebx,esi
 8049ac0:	01 d3                	add    ebx,edx
 8049ac2:	81 f3 82 23 67 b4    	xor    ebx,0xb4672382
 8049ac8:	29 d8                	sub    eax,ebx
 8049aca:	89 c3                	mov    ebx,eax
 8049acc:	89 c6                	mov    esi,eax
 8049ace:	c1 ee 05             	shr    esi,0x5
 8049ad1:	c1 e3 04             	shl    ebx,0x4
 8049ad4:	31 f3                	xor    ebx,esi
 8049ad6:	01 c3                	add    ebx,eax
 8049ad8:	81 f3 18 bf 04 0c    	xor    ebx,0xc04bf18
 8049ade:	29 da                	sub    edx,ebx
 8049ae0:	89 d3                	mov    ebx,edx
 8049ae2:	89 d6                	mov    esi,edx
 8049ae4:	c1 e3 04             	shl    ebx,0x4
 8049ae7:	c1 ee 05             	shr    esi,0x5
 8049aea:	31 f3                	xor    ebx,esi
 8049aec:	01 d3                	add    ebx,edx
 8049aee:	81 f3 c9 a9 2f 16    	xor    ebx,0x162fa9c9
 8049af4:	29 d8                	sub    eax,ebx
 8049af6:	89 c3                	mov    ebx,eax
 8049af8:	89 c6                	mov    esi,eax
 8049afa:	c1 ee 05             	shr    esi,0x5
 8049afd:	c1 e3 04             	shl    ebx,0x4
 8049b00:	31 f3                	xor    ebx,esi
 8049b02:	01 c3                	add    ebx,eax
 8049b04:	81 f3 5f 65 a7 38    	xor    ebx,0x38a7655f
 8049b0a:	29 da                	sub    edx,ebx
 8049b0c:	89 d3                	mov    ebx,edx
 8049b0e:	89 d6                	mov    esi,edx
 8049b10:	c1 ee 05             	shr    esi,0x5
 8049b13:	c1 e3 04             	shl    ebx,0x4
 8049b16:	31 f3                	xor    ebx,esi
 8049b18:	01 d3                	add    ebx,edx
 8049b1a:	81 f3 5f 65 a7 38    	xor    ebx,0x38a7655f
 8049b20:	29 d8                	sub    eax,ebx
 8049b22:	89 c3                	mov    ebx,eax
 8049b24:	89 c6                	mov    esi,eax
 8049b26:	c1 ee 05             	shr    esi,0x5
 8049b29:	c1 e3 04             	shl    ebx,0x4
 8049b2c:	31 f3                	xor    ebx,esi
 8049b2e:	01 c3                	add    ebx,eax
 8049b30:	81 f3 57 b6 c0 d9    	xor    ebx,0xd9c0b657
 8049b36:	29 da                	sub    edx,ebx
 8049b38:	89 d3                	mov    ebx,edx
 8049b3a:	89 d6                	mov    esi,edx
 8049b3c:	c1 ee 05             	shr    esi,0x5
 8049b3f:	c1 e3 04             	shl    ebx,0x4
 8049b42:	31 f3                	xor    ebx,esi
 8049b44:	01 d3                	add    ebx,edx
 8049b46:	81 f3 a6 cb 95 cf    	xor    ebx,0xcf95cba6
 8049b4c:	29 d8                	sub    eax,ebx
 8049b4e:	89 c3                	mov    ebx,eax
 8049b50:	89 c6                	mov    esi,eax
 8049b52:	c1 ee 05             	shr    esi,0x5
 8049b55:	c1 e3 04             	shl    ebx,0x4
 8049b58:	31 f3                	xor    ebx,esi
 8049b5a:	01 c3                	add    ebx,eax
 8049b5c:	81 f3 cf 40 38 4f    	xor    ebx,0x4f3840cf
 8049b62:	29 da                	sub    edx,ebx
 8049b64:	89 d3                	mov    ebx,edx
 8049b66:	89 d6                	mov    esi,edx
 8049b68:	c1 ee 05             	shr    esi,0x5
 8049b6b:	c1 e3 04             	shl    ebx,0x4
 8049b6e:	31 f3                	xor    ebx,esi
 8049b70:	01 d3                	add    ebx,edx
 8049b72:	81 f3 cf 40 38 4f    	xor    ebx,0x4f3840cf
 8049b78:	29 d8                	sub    eax,ebx
 8049b7a:	89 c3                	mov    ebx,eax
 8049b7c:	89 c6                	mov    esi,eax
 8049b7e:	c1 ee 05             	shr    esi,0x5
 8049b81:	c1 e3 04             	shl    ebx,0x4
 8049b84:	31 f3                	xor    ebx,esi
 8049b86:	01 c3                	add    ebx,eax
 8049b88:	81 f3 34 d8 26 93    	xor    ebx,0x9326d834
 8049b8e:	29 da                	sub    edx,ebx
 8049b90:	89 d3                	mov    ebx,edx
 8049b92:	89 d6                	mov    esi,edx
 8049b94:	c1 ee 05             	shr    esi,0x5
 8049b97:	c1 e3 04             	shl    ebx,0x4
 8049b9a:	31 f3                	xor    ebx,esi
 8049b9c:	01 d3                	add    ebx,edx
 8049b9e:	81 f3 e5 c2 51 9d    	xor    ebx,0x9d51c2e5
 8049ba4:	29 d8                	sub    eax,ebx
 8049ba6:	89 c3                	mov    ebx,eax
 8049ba8:	89 c6                	mov    esi,eax
 8049baa:	c1 ee 05             	shr    esi,0x5
 8049bad:	c1 e3 04             	shl    ebx,0x4
 8049bb0:	31 f3                	xor    ebx,esi
 8049bb2:	01 c3                	add    ebx,eax
 8049bb4:	81 f3 7b 7e c9 bf    	xor    ebx,0xbfc97e7b
 8049bba:	29 da                	sub    edx,ebx
 8049bbc:	89 d3                	mov    ebx,edx
 8049bbe:	89 d6                	mov    esi,edx
 8049bc0:	c1 ee 05             	shr    esi,0x5
 8049bc3:	c1 e3 04             	shl    ebx,0x4
 8049bc6:	31 f3                	xor    ebx,esi
 8049bc8:	01 d3                	add    ebx,edx
 8049bca:	81 f3 2c 49 1a ff    	xor    ebx,0xff1a492c
 8049bd0:	29 d8                	sub    eax,ebx
 8049bd2:	89 c3                	mov    ebx,eax
 8049bd4:	89 c6                	mov    esi,eax
 8049bd6:	c1 ee 05             	shr    esi,0x5
 8049bd9:	c1 e3 04             	shl    ebx,0x4
 8049bdc:	31 f3                	xor    ebx,esi
 8049bde:	01 c3                	add    ebx,eax
 8049be0:	81 f3 73 cf e2 60    	xor    ebx,0x60e2cf73
 8049be6:	29 da                	sub    edx,ebx
 8049be8:	89 d3                	mov    ebx,edx
 8049bea:	89 d6                	mov    esi,edx
 8049bec:	c1 ee 05             	shr    esi,0x5
 8049bef:	c1 e3 04             	shl    ebx,0x4
 8049bf2:	31 f3                	xor    ebx,esi
 8049bf4:	01 d3                	add    ebx,edx
 8049bf6:	81 f3 c2 04 92 21    	xor    ebx,0x219204c2
 8049bfc:	29 d8                	sub    eax,ebx
 8049bfe:	89 c3                	mov    ebx,eax
 8049c00:	89 c6                	mov    esi,eax
 8049c02:	c1 ee 05             	shr    esi,0x5
 8049c05:	c1 e3 04             	shl    ebx,0x4
 8049c08:	31 f3                	xor    ebx,esi
 8049c0a:	01 c3                	add    ebx,eax
 8049c0c:	81 f3 eb 59 5a d6    	xor    ebx,0xd65a59eb
 8049c12:	29 da                	sub    edx,ebx
 8049c14:	89 d3                	mov    ebx,edx
 8049c16:	89 d6                	mov    esi,edx
 8049c18:	c1 ee 05             	shr    esi,0x5
 8049c1b:	c1 e3 04             	shl    ebx,0x4
 8049c1e:	31 f3                	xor    ebx,esi
 8049c20:	01 d3                	add    ebx,edx
 8049c22:	81 f3 09 6b 80 b8    	xor    ebx,0xb8806b09
 8049c28:	29 d8                	sub    eax,ebx
 8049c2a:	89 c3                	mov    ebx,eax
 8049c2c:	89 c6                	mov    esi,eax
 8049c2e:	c1 ee 05             	shr    esi,0x5
 8049c31:	c1 e3 04             	shl    ebx,0x4
 8049c34:	31 f3                	xor    ebx,esi
 8049c36:	01 c3                	add    ebx,eax
 8049c38:	81 f3 50 f1 48 1a    	xor    ebx,0x1a48f150
 8049c3e:	29 da                	sub    edx,ebx
 8049c40:	89 d3                	mov    ebx,edx
 8049c42:	89 d6                	mov    esi,edx
 8049c44:	c1 e3 04             	shl    ebx,0x4
 8049c47:	c1 ee 05             	shr    esi,0x5
 8049c4a:	31 f3                	xor    ebx,esi
 8049c4c:	01 d3                	add    ebx,edx
 8049c4e:	81 f3 32 e0 22 38    	xor    ebx,0x3822e032
 8049c54:	29 d8                	sub    eax,ebx
 8049c56:	89 c3                	mov    ebx,eax
 8049c58:	89 c6                	mov    esi,eax
 8049c5a:	c1 ee 05             	shr    esi,0x5
 8049c5d:	c1 e3 04             	shl    ebx,0x4
 8049c60:	31 f3                	xor    ebx,esi
 8049c62:	01 c3                	add    ebx,eax
 8049c64:	81 f3 97 97 eb 46    	xor    ebx,0x46eb9797
 8049c6a:	29 da                	sub    edx,ebx
 8049c6c:	89 d3                	mov    ebx,edx
 8049c6e:	89 d6                	mov    esi,edx
 8049c70:	c1 ee 05             	shr    esi,0x5
 8049c73:	c1 e3 04             	shl    ebx,0x4
 8049c76:	31 f3                	xor    ebx,esi
 8049c78:	01 d3                	add    ebx,edx
 8049c7a:	81 f3 79 66 eb 99    	xor    ebx,0x99eb6679
 8049c80:	29 d8                	sub    eax,ebx
 8049c82:	89 c3                	mov    ebx,eax
 8049c84:	89 c6                	mov    esi,eax
 8049c86:	c1 ee 05             	shr    esi,0x5
 8049c89:	c1 e3 04             	shl    ebx,0x4
 8049c8c:	31 f3                	xor    ebx,esi
 8049c8e:	01 c3                	add    ebx,eax
 8049c90:	81 f3 8f e8 04 e8    	xor    ebx,0xe804e88f
 8049c96:	29 da                	sub    edx,ebx
 8049c98:	89 d3                	mov    ebx,edx
 8049c9a:	89 d6                	mov    esi,edx
 8049c9c:	c1 ee 05             	shr    esi,0x5
 8049c9f:	c1 e3 04             	shl    ebx,0x4
 8049ca2:	31 f3                	xor    ebx,esi
 8049ca4:	01 d3                	add    ebx,edx
 8049ca6:	81 f3 8f e8 04 e8    	xor    ebx,0xe804e88f
 8049cac:	29 d8                	sub    eax,ebx
 8049cae:	89 c3                	mov    ebx,eax
 8049cb0:	89 c6                	mov    esi,eax
 8049cb2:	c1 ee 05             	shr    esi,0x5
 8049cb5:	c1 e3 04             	shl    ebx,0x4
 8049cb8:	31 f3                	xor    ebx,esi
 8049cba:	01 c3                	add    ebx,eax
 8049cbc:	81 f3 07 73 7c 5d    	xor    ebx,0x5d7c7307
 8049cc2:	29 da                	sub    edx,ebx
 8049cc4:	89 d3                	mov    ebx,edx
 8049cc6:	89 d6                	mov    esi,edx
 8049cc8:	c1 ee 05             	shr    esi,0x5
 8049ccb:	c1 e3 04             	shl    ebx,0x4
 8049cce:	31 f3                	xor    ebx,esi
 8049cd0:	01 d3                	add    ebx,edx
 8049cd2:	81 f3 25 a4 7c 0a    	xor    ebx,0xa7ca425
 8049cd8:	29 d8                	sub    eax,ebx
 8049cda:	89 c3                	mov    ebx,eax
 8049cdc:	89 c6                	mov    esi,eax
 8049cde:	c1 ee 05             	shr    esi,0x5
 8049ce1:	c1 e3 04             	shl    ebx,0x4
 8049ce4:	31 f3                	xor    ebx,esi
 8049ce6:	01 c3                	add    ebx,eax
 8049ce8:	81 f3 6c 0a 6b a1    	xor    ebx,0xa16b0a6c
 8049cee:	29 da                	sub    edx,ebx
 8049cf0:	89 d3                	mov    ebx,edx
 8049cf2:	89 d6                	mov    esi,edx
 8049cf4:	c1 ee 05             	shr    esi,0x5
 8049cf7:	c1 e3 04             	shl    ebx,0x4
 8049cfa:	31 f3                	xor    ebx,esi
 8049cfc:	01 d3                	add    ebx,edx
 8049cfe:	81 f3 6c 0a 6b a1    	xor    ebx,0xa16b0a6c
 8049d04:	29 d8                	sub    eax,ebx
 8049d06:	89 c3                	mov    ebx,eax
 8049d08:	89 c6                	mov    esi,eax
 8049d0a:	c1 ee 05             	shr    esi,0x5
 8049d0d:	c1 e3 04             	shl    ebx,0x4
 8049d10:	31 f3                	xor    ebx,esi
 8049d12:	01 c3                	add    ebx,eax
 8049d14:	81 f3 b3 b0 0d ce    	xor    ebx,0xce0db0b3
 8049d1a:	29 da                	sub    edx,ebx
 8049d1c:	89 d3                	mov    ebx,edx
 8049d1e:	89 d6                	mov    esi,edx
 8049d20:	c1 ee 05             	shr    esi,0x5
 8049d23:	c1 e3 04             	shl    ebx,0x4
 8049d26:	31 f3                	xor    ebx,esi
 8049d28:	01 d3                	add    ebx,edx
 8049d2a:	81 f3 95 7f 0d 21    	xor    ebx,0x210d7f95
 8049d30:	29 d8                	sub    eax,ebx
 8049d32:	89 c3                	mov    ebx,eax
 8049d34:	89 c6                	mov    esi,eax
 8049d36:	c1 ee 05             	shr    esi,0x5
 8049d39:	c1 e3 04             	shl    ebx,0x4
 8049d3c:	31 f3                	xor    ebx,esi
 8049d3e:	01 c3                	add    ebx,eax
 8049d40:	81 f3 ab 01 27 6f    	xor    ebx,0x6f2701ab
 8049d46:	29 da                	sub    edx,ebx
 8049d48:	89 d3                	mov    ebx,edx
 8049d4a:	89 d6                	mov    esi,edx
 8049d4c:	c1 ee 05             	shr    esi,0x5
 8049d4f:	c1 e3 04             	shl    ebx,0x4
 8049d52:	31 f3                	xor    ebx,esi
 8049d54:	01 d3                	add    ebx,edx
 8049d56:	81 f3 dc 05 d6 82    	xor    ebx,0x82d605dc
 8049d5c:	29 d8                	sub    eax,ebx
 8049d5e:	89 c3                	mov    ebx,eax
 8049d60:	89 c6                	mov    esi,eax
 8049d62:	c1 ee 05             	shr    esi,0x5
 8049d65:	c1 e3 04             	shl    ebx,0x4
 8049d68:	31 f3                	xor    ebx,esi
 8049d6a:	01 c3                	add    ebx,eax
 8049d6c:	81 f3 23 8c 9e e4    	xor    ebx,0xe49e8c23
 8049d72:	29 da                	sub    edx,ebx
 8049d74:	89 d3                	mov    ebx,edx
 8049d76:	89 d6                	mov    esi,edx
 8049d78:	c1 ee 05             	shr    esi,0x5
 8049d7b:	c1 e3 04             	shl    ebx,0x4
 8049d7e:	31 f3                	xor    ebx,esi
 8049d80:	01 d3                	add    ebx,edx
 8049d82:	81 f3 f2 87 ef d0    	xor    ebx,0xd0ef87f2
 8049d88:	29 d8                	sub    eax,ebx
 8049d8a:	89 c3                	mov    ebx,eax
 8049d8c:	89 c6                	mov    esi,eax
 8049d8e:	c1 ee 05             	shr    esi,0x5
 8049d91:	c1 e3 04             	shl    ebx,0x4
 8049d94:	31 f3                	xor    ebx,esi
 8049d96:	01 c3                	add    ebx,eax
 8049d98:	81 f3 88 23 8d 28    	xor    ebx,0x288d2388
 8049d9e:	29 da                	sub    edx,ebx
 8049da0:	89 d3                	mov    ebx,edx
 8049da2:	89 d6                	mov    esi,edx
 8049da4:	c1 e3 04             	shl    ebx,0x4
 8049da7:	c1 ee 05             	shr    esi,0x5
 8049daa:	31 f3                	xor    ebx,esi
 8049dac:	01 d3                	add    ebx,edx
 8049dae:	81 f3 88 43 67 f3    	xor    ebx,0xf3674388
 8049db4:	29 d8                	sub    eax,ebx
 8049db6:	89 c3                	mov    ebx,eax
 8049db8:	89 c6                	mov    esi,eax
 8049dba:	c1 ee 05             	shr    esi,0x5
 8049dbd:	c1 e3 04             	shl    ebx,0x4
 8049dc0:	31 f3                	xor    ebx,esi
 8049dc2:	01 c3                	add    ebx,eax
 8049dc4:	81 f3 cf c9 2f 55    	xor    ebx,0x552fc9cf
 8049dca:	29 da                	sub    edx,ebx
 8049dcc:	89 d3                	mov    ebx,edx
 8049dce:	89 d6                	mov    esi,edx
 8049dd0:	c1 ee 05             	shr    esi,0x5
 8049dd3:	c1 e3 04             	shl    ebx,0x4
 8049dd6:	31 f3                	xor    ebx,esi
 8049dd8:	01 d3                	add    ebx,edx
 8049dda:	81 f3 cf a9 55 8a    	xor    ebx,0x8a55a9cf
 8049de0:	29 d8                	sub    eax,ebx
 8049de2:	89 c3                	mov    ebx,eax
 8049de4:	89 c6                	mov    esi,eax
 8049de6:	c1 ee 05             	shr    esi,0x5
 8049de9:	c1 e3 04             	shl    ebx,0x4
 8049dec:	31 f3                	xor    ebx,esi
 8049dee:	01 c3                	add    ebx,eax
 8049df0:	81 f3 c7 1a 49 f6    	xor    ebx,0xf6491ac7
 8049df6:	29 da                	sub    edx,ebx
 8049df8:	89 d3                	mov    ebx,edx
 8049dfa:	89 d6                	mov    esi,edx
 8049dfc:	c1 ee 05             	shr    esi,0x5
 8049dff:	c1 e3 04             	shl    ebx,0x4
 8049e02:	31 f3                	xor    ebx,esi
 8049e04:	01 d3                	add    ebx,edx
 8049e06:	81 f3 f8 1e f8 09    	xor    ebx,0x9f81ef8
 8049e0c:	29 d8                	sub    eax,ebx
 8049e0e:	89 c3                	mov    ebx,eax
 8049e10:	89 c6                	mov    esi,eax
 8049e12:	c1 ee 05             	shr    esi,0x5
 8049e15:	c1 e3 04             	shl    ebx,0x4
 8049e18:	31 f3                	xor    ebx,esi
 8049e1a:	01 c3                	add    ebx,eax
 8049e1c:	81 f3 3f a5 c0 6b    	xor    ebx,0x6bc0a53f
 8049e22:	29 da                	sub    edx,ebx
 8049e24:	89 d3                	mov    ebx,edx
 8049e26:	89 d6                	mov    esi,edx
 8049e28:	c1 ee 05             	shr    esi,0x5
 8049e2b:	c1 e3 04             	shl    ebx,0x4
 8049e2e:	31 f3                	xor    ebx,esi
 8049e30:	01 d3                	add    ebx,edx
 8049e32:	81 f3 3f a5 c0 6b    	xor    ebx,0x6bc0a53f
 8049e38:	29 d8                	sub    eax,ebx
 8049e3a:	89 c3                	mov    ebx,eax
 8049e3c:	89 c6                	mov    esi,eax
 8049e3e:	c1 ee 05             	shr    esi,0x5
 8049e41:	c1 e3 04             	shl    ebx,0x4
 8049e44:	31 f3                	xor    ebx,esi
 8049e46:	01 c3                	add    ebx,eax
 8049e48:	81 f3 a4 3c af af    	xor    ebx,0xafaf3ca4
 8049e4e:	29 da                	sub    edx,ebx
 8049e50:	89 d3                	mov    ebx,edx
 8049e52:	89 d6                	mov    esi,edx
 8049e54:	c1 ee 05             	shr    esi,0x5
 8049e57:	c1 e3 04             	shl    ebx,0x4
 8049e5a:	31 f3                	xor    ebx,esi
 8049e5c:	01 d3                	add    ebx,edx
 8049e5e:	81 f3 55 27 da b9    	xor    ebx,0xb9da2755
 8049e64:	29 d8                	sub    eax,ebx
 8049e66:	89 c3                	mov    ebx,eax
 8049e68:	89 c6                	mov    esi,eax
 8049e6a:	c1 ee 05             	shr    esi,0x5
 8049e6d:	c1 e3 04             	shl    ebx,0x4
 8049e70:	31 f3                	xor    ebx,esi
 8049e72:	01 c3                	add    ebx,eax
 8049e74:	81 f3 eb e2 51 dc    	xor    ebx,0xdc51e2eb
 8049e7a:	29 da                	sub    edx,ebx
 8049e7c:	89 d3                	mov    ebx,edx
 8049e7e:	89 d6                	mov    esi,edx
 8049e80:	c1 ee 05             	shr    esi,0x5
 8049e83:	c1 e3 04             	shl    ebx,0x4
 8049e86:	31 f3                	xor    ebx,esi
 8049e88:	01 d3                	add    ebx,edx
 8049e8a:	81 f3 eb e2 51 dc    	xor    ebx,0xdc51e2eb
 8049e90:	29 d8                	sub    eax,ebx
 8049e92:	89 c3                	mov    ebx,eax
 8049e94:	89 c6                	mov    esi,eax
 8049e96:	c1 ee 05             	shr    esi,0x5
 8049e99:	c1 e3 04             	shl    ebx,0x4
 8049e9c:	31 f3                	xor    ebx,esi
 8049e9e:	01 c3                	add    ebx,eax
 8049ea0:	81 f3 e3 33 6b 7d    	xor    ebx,0x7d6b33e3
 8049ea6:	29 da                	sub    edx,ebx
 8049ea8:	89 d3                	mov    ebx,edx
 8049eaa:	89 d6                	mov    esi,edx
 8049eac:	c1 ee 05             	shr    esi,0x5
 8049eaf:	c1 e3 04             	shl    ebx,0x4
 8049eb2:	31 f3                	xor    ebx,esi
 8049eb4:	01 d3                	add    ebx,edx
 8049eb6:	81 f3 32 49 40 73    	xor    ebx,0x73404932
 8049ebc:	29 d8                	sub    eax,ebx
 8049ebe:	89 c3                	mov    ebx,eax
 8049ec0:	89 c6                	mov    esi,eax
 8049ec2:	c1 ee 05             	shr    esi,0x5
 8049ec5:	c1 e3 04             	shl    ebx,0x4
 8049ec8:	31 f3                	xor    ebx,esi
 8049eca:	01 c3                	add    ebx,eax
 8049ecc:	81 f3 5b be e2 f2    	xor    ebx,0xf2e2be5b
 8049ed2:	29 da                	sub    edx,ebx
 8049ed4:	89 d3                	mov    ebx,edx
 8049ed6:	89 d6                	mov    esi,edx
 8049ed8:	c1 ee 05             	shr    esi,0x5
 8049edb:	c1 e3 04             	shl    ebx,0x4
 8049ede:	31 f3                	xor    ebx,esi
 8049ee0:	01 d3                	add    ebx,edx
 8049ee2:	81 f3 79 cf 08 d5    	xor    ebx,0xd508cf79
 8049ee8:	29 d8                	sub    eax,ebx
 8049eea:	89 c3                	mov    ebx,eax
 8049eec:	89 c6                	mov    esi,eax
 8049eee:	c1 ee 05             	shr    esi,0x5
 8049ef1:	c1 e3 04             	shl    ebx,0x4
 8049ef4:	31 f3                	xor    ebx,esi
 8049ef6:	01 c3                	add    ebx,eax
 8049ef8:	81 f3 c0 55 d1 36    	xor    ebx,0x36d155c0
 8049efe:	29 da                	sub    edx,ebx
 8049f00:	89 d3                	mov    ebx,edx
 8049f02:	89 d6                	mov    esi,edx
 8049f04:	c1 e3 04             	shl    ebx,0x4
 8049f07:	c1 ee 05             	shr    esi,0x5
 8049f0a:	31 f3                	xor    ebx,esi
 8049f0c:	01 d3                	add    ebx,edx
 8049f0e:	81 f3 a2 44 ab 54    	xor    ebx,0x54ab44a2
 8049f14:	29 d8                	sub    eax,ebx
 8049f16:	89 c3                	mov    ebx,eax
 8049f18:	89 c6                	mov    esi,eax
 8049f1a:	c1 ee 05             	shr    esi,0x5
 8049f1d:	c1 e3 04             	shl    ebx,0x4
 8049f20:	31 f3                	xor    ebx,esi
 8049f22:	01 c3                	add    ebx,eax
 8049f24:	81 f3 07 fc 73 63    	xor    ebx,0x6373fc07
 8049f2a:	29 da                	sub    edx,ebx
 8049f2c:	89 d3                	mov    ebx,edx
 8049f2e:	89 d6                	mov    esi,edx
 8049f30:	c1 ee 05             	shr    esi,0x5
 8049f33:	c1 e3 04             	shl    ebx,0x4
 8049f36:	31 f3                	xor    ebx,esi
 8049f38:	01 d3                	add    ebx,edx
 8049f3a:	81 f3 b8 c6 c4 a2    	xor    ebx,0xa2c4c6b8
 8049f40:	29 d8                	sub    eax,ebx
 8049f42:	89 c3                	mov    ebx,eax
 8049f44:	89 c6                	mov    esi,eax
 8049f46:	c1 ee 05             	shr    esi,0x5
 8049f49:	c1 e3 04             	shl    ebx,0x4
 8049f4c:	31 f3                	xor    ebx,esi
 8049f4e:	01 c3                	add    ebx,eax
 8049f50:	81 f3 ff 4c 8d 04    	xor    ebx,0x48d4cff
 8049f56:	29 da                	sub    edx,ebx
 8049f58:	89 d3                	mov    ebx,edx
 8049f5a:	89 d6                	mov    esi,edx
 8049f5c:	c1 ee 05             	shr    esi,0x5
 8049f5f:	c1 e3 04             	shl    ebx,0x4
 8049f62:	31 f3                	xor    ebx,esi
 8049f64:	01 d3                	add    ebx,edx
 8049f66:	81 f3 4e 82 3c c5    	xor    ebx,0xc53c824e
 8049f6c:	29 d8                	sub    eax,ebx
 8049f6e:	89 c3                	mov    ebx,eax
 8049f70:	89 c6                	mov    esi,eax
 8049f72:	c1 ee 05             	shr    esi,0x5
 8049f75:	c1 e3 04             	shl    ebx,0x4
 8049f78:	31 f3                	xor    ebx,esi
 8049f7a:	01 c3                	add    ebx,eax
 8049f7c:	81 f3 77 d7 04 7a    	xor    ebx,0x7a04d777
 8049f82:	29 da                	sub    edx,ebx
 8049f84:	89 d3                	mov    ebx,edx
 8049f86:	89 d6                	mov    esi,edx
 8049f88:	c1 ee 05             	shr    esi,0x5
 8049f8b:	c1 e3 04             	shl    ebx,0x4
 8049f8e:	31 f3                	xor    ebx,esi
 8049f90:	01 d3                	add    ebx,edx
 8049f92:	81 f3 95 e8 2a 5c    	xor    ebx,0x5c2ae895
 8049f98:	29 d8                	sub    eax,ebx
 8049f9a:	89 c3                	mov    ebx,eax
 8049f9c:	89 c6                	mov    esi,eax
 8049f9e:	c1 ee 05             	shr    esi,0x5
 8049fa1:	c1 e3 04             	shl    ebx,0x4
 8049fa4:	31 f3                	xor    ebx,esi
 8049fa6:	01 c3                	add    ebx,eax
 8049fa8:	81 f3 dc 6e f3 bd    	xor    ebx,0xbdf36edc
 8049fae:	29 da                	sub    edx,ebx
 8049fb0:	89 d3                	mov    ebx,edx
 8049fb2:	89 d6                	mov    esi,edx
 8049fb4:	c1 ee 05             	shr    esi,0x5
 8049fb7:	c1 e3 04             	shl    ebx,0x4
 8049fba:	31 f3                	xor    ebx,esi
 8049fbc:	01 d3                	add    ebx,edx
 8049fbe:	81 f3 dc 6e f3 bd    	xor    ebx,0xbdf36edc
 8049fc4:	29 d8                	sub    eax,ebx
 8049fc6:	89 c3                	mov    ebx,eax
 8049fc8:	89 c6                	mov    esi,eax
 8049fca:	c1 ee 05             	shr    esi,0x5
 8049fcd:	c1 e3 04             	shl    ebx,0x4
 8049fd0:	31 f3                	xor    ebx,esi
 8049fd2:	01 c3                	add    ebx,eax
 8049fd4:	81 f3 23 15 96 ea    	xor    ebx,0xea961523
 8049fda:	29 da                	sub    edx,ebx
 8049fdc:	89 d3                	mov    ebx,edx
 8049fde:	89 d6                	mov    esi,edx
 8049fe0:	c1 ee 05             	shr    esi,0x5
 8049fe3:	c1 e3 04             	shl    ebx,0x4
 8049fe6:	31 f3                	xor    ebx,esi
 8049fe8:	01 d3                	add    ebx,edx
 8049fea:	81 f3 05 e4 95 3d    	xor    ebx,0x3d95e405
 8049ff0:	29 d8                	sub    eax,ebx
 8049ff2:	89 c3                	mov    ebx,eax
 8049ff4:	89 c6                	mov    esi,eax
 8049ff6:	c1 ee 05             	shr    esi,0x5
 8049ff9:	c1 e3 04             	shl    ebx,0x4
 8049ffc:	31 f3                	xor    ebx,esi
 8049ffe:	01 c3                	add    ebx,eax
 804a000:	81 f3 1b 66 af 8b    	xor    ebx,0x8baf661b
 804a006:	29 da                	sub    edx,ebx
 804a008:	89 d3                	mov    ebx,edx
 804a00a:	89 d6                	mov    esi,edx
 804a00c:	c1 ee 05             	shr    esi,0x5
 804a00f:	c1 e3 04             	shl    ebx,0x4
 804a012:	31 f3                	xor    ebx,esi
 804a014:	01 d3                	add    ebx,edx
 804a016:	81 f3 1b 66 af 8b    	xor    ebx,0x8baf661b
 804a01c:	29 d8                	sub    eax,ebx
 804a01e:	89 c3                	mov    ebx,eax
 804a020:	89 c6                	mov    esi,eax
 804a022:	c1 ee 05             	shr    esi,0x5
 804a025:	c1 e3 04             	shl    ebx,0x4
 804a028:	31 f3                	xor    ebx,esi
 804a02a:	01 c3                	add    ebx,eax
 804a02c:	81 f3 93 f0 26 01    	xor    ebx,0x126f093
 804a032:	29 da                	sub    edx,ebx
 804a034:	89 d3                	mov    ebx,edx
 804a036:	89 d6                	mov    esi,edx
 804a038:	c1 ee 05             	shr    esi,0x5
 804a03b:	c1 e3 04             	shl    ebx,0x4
 804a03e:	31 f3                	xor    ebx,esi
 804a040:	01 d3                	add    ebx,edx
 804a042:	81 f3 b1 21 27 ae    	xor    ebx,0xae2721b1
 804a048:	29 d8                	sub    eax,ebx
 804a04a:	89 c3                	mov    ebx,eax
 804a04c:	89 c6                	mov    esi,eax
 804a04e:	c1 ee 05             	shr    esi,0x5
 804a051:	c1 e3 04             	shl    ebx,0x4
 804a054:	31 f3                	xor    ebx,esi
 804a056:	01 c3                	add    ebx,eax
 804a058:	81 f3 f8 87 15 45    	xor    ebx,0x451587f8
 804a05e:	29 da                	sub    edx,ebx
 804a060:	89 d3                	mov    ebx,edx
 804a062:	89 d6                	mov    esi,edx
 804a064:	c1 e3 04             	shl    ebx,0x4
 804a067:	c1 ee 05             	shr    esi,0x5
 804a06a:	31 f3                	xor    ebx,esi
 804a06c:	01 d3                	add    ebx,edx
 804a06e:	81 f3 f8 a7 ef 0f    	xor    ebx,0xfefa7f8
 804a074:	29 d8                	sub    eax,ebx
 804a076:	89 c3                	mov    ebx,eax
 804a078:	89 c6                	mov    esi,eax
 804a07a:	c1 ee 05             	shr    esi,0x5
 804a07d:	c1 e3 04             	shl    ebx,0x4
 804a080:	31 f3                	xor    ebx,esi
 804a082:	01 c3                	add    ebx,eax
 804a084:	81 f3 3f 2e b8 71    	xor    ebx,0x71b82e3f
 804a08a:	29 da                	sub    edx,ebx
 804a08c:	89 d3                	mov    ebx,edx
 804a08e:	89 d6                	mov    esi,edx
 804a090:	c1 ee 05             	shr    esi,0x5
 804a093:	c1 e3 04             	shl    ebx,0x4
 804a096:	31 f3                	xor    ebx,esi
 804a098:	01 d3                	add    ebx,edx
 804a09a:	81 f3 3f 0e de a6    	xor    ebx,0xa6de0e3f
 804a0a0:	29 d8                	sub    eax,ebx
 804a0a2:	89 c3                	mov    ebx,eax
 804a0a4:	89 c6                	mov    esi,eax
 804a0a6:	c1 ee 05             	shr    esi,0x5
 804a0a9:	c1 e3 04             	shl    ebx,0x4
 804a0ac:	31 f3                	xor    ebx,esi
 804a0ae:	01 c3                	add    ebx,eax
 804a0b0:	81 f3 37 7f d1 12    	xor    ebx,0x12d17f37
 804a0b6:	29 da                	sub    edx,ebx
 804a0b8:	89 d3                	mov    ebx,edx
 804a0ba:	89 d6                	mov    esi,edx
 804a0bc:	c1 ee 05             	shr    esi,0x5
 804a0bf:	c1 e3 04             	shl    ebx,0x4
 804a0c2:	31 f3                	xor    ebx,esi
 804a0c4:	01 d3                	add    ebx,edx
 804a0c6:	81 f3 68 83 80 26    	xor    ebx,0x26808368
 804a0cc:	29 d8                	sub    eax,ebx
 804a0ce:	89 c3                	mov    ebx,eax
 804a0d0:	89 c6                	mov    esi,eax
 804a0d2:	c1 ee 05             	shr    esi,0x5
 804a0d5:	c1 e3 04             	shl    ebx,0x4
 804a0d8:	31 f3                	xor    ebx,esi
 804a0da:	01 c3                	add    ebx,eax
 804a0dc:	81 f3 af 09 49 88    	xor    ebx,0x884909af
 804a0e2:	29 da                	sub    edx,ebx
 804a0e4:	89 d3                	mov    ebx,edx
 804a0e6:	89 d6                	mov    esi,edx
 804a0e8:	c1 ee 05             	shr    esi,0x5
 804a0eb:	c1 e3 04             	shl    ebx,0x4
 804a0ee:	31 f3                	xor    ebx,esi
 804a0f0:	01 d3                	add    ebx,edx
 804a0f2:	81 f3 7e 05 9a 74    	xor    ebx,0x749a057e
 804a0f8:	29 d8                	sub    eax,ebx
 804a0fa:	89 c3                	mov    ebx,eax
 804a0fc:	89 c6                	mov    esi,eax
 804a0fe:	c1 ee 05             	shr    esi,0x5
 804a101:	c1 e3 04             	shl    ebx,0x4
 804a104:	31 f3                	xor    ebx,esi
 804a106:	01 c3                	add    ebx,eax
 804a108:	81 f3 14 a1 37 cc    	xor    ebx,0xcc37a114
 804a10e:	29 da                	sub    edx,ebx
 804a110:	89 d3                	mov    ebx,edx
 804a112:	89 d6                	mov    esi,edx
 804a114:	c1 ee 05             	shr    esi,0x5
 804a117:	c1 e3 04             	shl    ebx,0x4
 804a11a:	31 f3                	xor    ebx,esi
 804a11c:	01 d3                	add    ebx,edx
 804a11e:	81 f3 14 c1 11 97    	xor    ebx,0x9711c114
 804a124:	29 d8                	sub    eax,ebx
 804a126:	89 c3                	mov    ebx,eax
 804a128:	89 c6                	mov    esi,eax
 804a12a:	c1 ee 05             	shr    esi,0x5
 804a12d:	c1 e3 04             	shl    ebx,0x4
 804a130:	31 f3                	xor    ebx,esi
 804a132:	01 c3                	add    ebx,eax
 804a134:	81 f3 5b 47 da f8    	xor    ebx,0xf8da475b
 804a13a:	29 da                	sub    edx,ebx
 804a13c:	89 d3                	mov    ebx,edx
 804a13e:	89 d6                	mov    esi,edx
 804a140:	c1 ee 05             	shr    esi,0x5
 804a143:	c1 e3 04             	shl    ebx,0x4
 804a146:	31 f3                	xor    ebx,esi
 804a148:	01 d3                	add    ebx,edx
 804a14a:	81 f3 5b 47 da f8    	xor    ebx,0xf8da475b
 804a150:	29 d8                	sub    eax,ebx
 804a152:	89 c3                	mov    ebx,eax
 804a154:	89 c6                	mov    esi,eax
 804a156:	c1 ee 05             	shr    esi,0x5
 804a159:	c1 e3 04             	shl    ebx,0x4
 804a15c:	31 f3                	xor    ebx,esi
 804a15e:	01 c3                	add    ebx,eax
 804a160:	81 f3 53 98 f3 99    	xor    ebx,0x99f39853
 804a166:	29 da                	sub    edx,ebx
 804a168:	89 d3                	mov    ebx,edx
 804a16a:	89 d6                	mov    esi,edx
 804a16c:	c1 ee 05             	shr    esi,0x5
 804a16f:	c1 e3 04             	shl    ebx,0x4
 804a172:	31 f3                	xor    ebx,esi
 804a174:	01 d3                	add    ebx,edx
 804a176:	81 f3 a2 ad c8 8f    	xor    ebx,0x8fc8ada2
 804a17c:	29 d8                	sub    eax,ebx
 804a17e:	89 c3                	mov    ebx,eax
 804a180:	89 c6                	mov    esi,eax
 804a182:	c1 ee 05             	shr    esi,0x5
 804a185:	c1 e3 04             	shl    ebx,0x4
 804a188:	31 f3                	xor    ebx,esi
 804a18a:	01 c3                	add    ebx,eax
 804a18c:	81 f3 cb 22 6b 0f    	xor    ebx,0xf6b22cb
 804a192:	29 da                	sub    edx,ebx
 804a194:	89 d3                	mov    ebx,edx
 804a196:	89 d6                	mov    esi,edx
 804a198:	c1 ee 05             	shr    esi,0x5
 804a19b:	c1 e3 04             	shl    ebx,0x4
 804a19e:	31 f3                	xor    ebx,esi
 804a1a0:	01 d3                	add    ebx,edx
 804a1a2:	81 f3 cb 22 6b 0f    	xor    ebx,0xf6b22cb
 804a1a8:	29 d8                	sub    eax,ebx
 804a1aa:	89 c3                	mov    ebx,eax
 804a1ac:	89 c6                	mov    esi,eax
 804a1ae:	c1 ee 05             	shr    esi,0x5
 804a1b1:	c1 e3 04             	shl    ebx,0x4
 804a1b4:	31 f3                	xor    ebx,esi
 804a1b6:	01 c3                	add    ebx,eax
 804a1b8:	81 f3 30 ba 59 53    	xor    ebx,0x5359ba30
 804a1be:	29 da                	sub    edx,ebx
 804a1c0:	89 d3                	mov    ebx,edx
 804a1c2:	89 d6                	mov    esi,edx
 804a1c4:	c1 e3 04             	shl    ebx,0x4
 804a1c7:	c1 ee 05             	shr    esi,0x5
 804a1ca:	31 f3                	xor    ebx,esi
 804a1cc:	01 d3                	add    ebx,edx
 804a1ce:	81 f3 e1 a4 84 5d    	xor    ebx,0x5d84a4e1
 804a1d4:	29 d8                	sub    eax,ebx
 804a1d6:	89 c3                	mov    ebx,eax
 804a1d8:	89 c6                	mov    esi,eax
 804a1da:	c1 ee 05             	shr    esi,0x5
 804a1dd:	c1 e3 04             	shl    ebx,0x4
 804a1e0:	31 f3                	xor    ebx,esi
 804a1e2:	01 c3                	add    ebx,eax
 804a1e4:	81 f3 77 60 fc 7f    	xor    ebx,0x7ffc6077
 804a1ea:	29 da                	sub    edx,ebx
 804a1ec:	89 d3                	mov    ebx,edx
 804a1ee:	89 d6                	mov    esi,edx
 804a1f0:	c1 ee 05             	shr    esi,0x5
 804a1f3:	c1 e3 04             	shl    ebx,0x4
 804a1f6:	31 f3                	xor    ebx,esi
 804a1f8:	01 d3                	add    ebx,edx
 804a1fa:	81 f3 77 60 fc 7f    	xor    ebx,0x7ffc6077
 804a200:	29 d8                	sub    eax,ebx
 804a202:	89 c3                	mov    ebx,eax
 804a204:	89 c6                	mov    esi,eax
 804a206:	c1 ee 05             	shr    esi,0x5
 804a209:	c1 e3 04             	shl    ebx,0x4
 804a20c:	31 f3                	xor    ebx,esi
 804a20e:	01 c3                	add    ebx,eax
 804a210:	81 f3 6f b1 15 21    	xor    ebx,0x2115b16f
 804a216:	29 da                	sub    edx,ebx
 804a218:	89 d3                	mov    ebx,edx
 804a21a:	89 d6                	mov    esi,edx
 804a21c:	c1 ee 05             	shr    esi,0x5
 804a21f:	c1 e3 04             	shl    ebx,0x4
 804a222:	31 f3                	xor    ebx,esi
 804a224:	01 d3                	add    ebx,edx
 804a226:	81 f3 be e6 c4 e1    	xor    ebx,0xe1c4e6be
 804a22c:	29 d8                	sub    eax,ebx
 804a22e:	89 c3                	mov    ebx,eax
 804a230:	89 c6                	mov    esi,eax
 804a232:	c1 ee 05             	shr    esi,0x5
 804a235:	c1 e3 04             	shl    ebx,0x4
 804a238:	31 f3                	xor    ebx,esi
 804a23a:	01 c3                	add    ebx,eax
 804a23c:	81 f3 e7 3b 8d 96    	xor    ebx,0x968d3be7
 804a242:	29 da                	sub    edx,ebx
 804a244:	89 d3                	mov    ebx,edx
 804a246:	89 d6                	mov    esi,edx
 804a248:	c1 ee 05             	shr    esi,0x5
 804a24b:	c1 e3 04             	shl    ebx,0x4
 804a24e:	31 f3                	xor    ebx,esi
 804a250:	01 d3                	add    ebx,edx
 804a252:	81 f3 05 4d b3 78    	xor    ebx,0x78b34d05
 804a258:	29 d8                	sub    eax,ebx
 804a25a:	89 c3                	mov    ebx,eax
 804a25c:	89 c6                	mov    esi,eax
 804a25e:	c1 ee 05             	shr    esi,0x5
 804a261:	c1 e3 04             	shl    ebx,0x4
 804a264:	31 f3                	xor    ebx,esi
 804a266:	01 c3                	add    ebx,eax
 804a268:	81 f3 4c d3 7b da    	xor    ebx,0xda7bd34c
 804a26e:	29 da                	sub    edx,ebx
 804a270:	89 d3                	mov    ebx,edx
 804a272:	89 d6                	mov    esi,edx
 804a274:	c1 ee 05             	shr    esi,0x5
 804a277:	c1 e3 04             	shl    ebx,0x4
 804a27a:	31 f3                	xor    ebx,esi
 804a27c:	01 d3                	add    ebx,edx
 804a27e:	81 f3 2e c2 55 f8    	xor    ebx,0xf855c22e
 804a284:	29 d8                	sub    eax,ebx
 804a286:	89 c3                	mov    ebx,eax
 804a288:	89 c6                	mov    esi,eax
 804a28a:	c1 ee 05             	shr    esi,0x5
 804a28d:	c1 e3 04             	shl    ebx,0x4
 804a290:	31 f3                	xor    ebx,esi
 804a292:	01 c3                	add    ebx,eax
 804a294:	81 f3 93 79 1e 07    	xor    ebx,0x71e7993
 804a29a:	29 da                	sub    edx,ebx
 804a29c:	89 d3                	mov    ebx,edx
 804a29e:	89 d6                	mov    esi,edx
 804a2a0:	c1 ee 05             	shr    esi,0x5
 804a2a3:	c1 e3 04             	shl    ebx,0x4
 804a2a6:	31 f3                	xor    ebx,esi
 804a2a8:	01 d3                	add    ebx,edx
 804a2aa:	81 f3 44 44 6f 46    	xor    ebx,0x466f4444
 804a2b0:	29 d8                	sub    eax,ebx
 804a2b2:	89 c3                	mov    ebx,eax
 804a2b4:	89 c6                	mov    esi,eax
 804a2b6:	c1 ee 05             	shr    esi,0x5
 804a2b9:	c1 e3 04             	shl    ebx,0x4
 804a2bc:	31 f3                	xor    ebx,esi
 804a2be:	01 c3                	add    ebx,eax
 804a2c0:	81 f3 8b ca 37 a8    	xor    ebx,0xa837ca8b
 804a2c6:	29 da                	sub    edx,ebx
 804a2c8:	89 d3                	mov    ebx,edx
 804a2ca:	89 d6                	mov    esi,edx
 804a2cc:	c1 ee 05             	shr    esi,0x5
 804a2cf:	c1 e3 04             	shl    ebx,0x4
 804a2d2:	31 f3                	xor    ebx,esi
 804a2d4:	01 d3                	add    ebx,edx
 804a2d6:	81 f3 8b ca 37 a8    	xor    ebx,0xa837ca8b
 804a2dc:	29 d8                	sub    eax,ebx
 804a2de:	89 c3                	mov    ebx,eax
 804a2e0:	89 c6                	mov    esi,eax
 804a2e2:	c1 ee 05             	shr    esi,0x5
 804a2e5:	c1 e3 04             	shl    ebx,0x4
 804a2e8:	31 f3                	xor    ebx,esi
 804a2ea:	01 c3                	add    ebx,eax
 804a2ec:	81 f3 03 55 af 1d    	xor    ebx,0x1daf5503
 804a2f2:	29 da                	sub    edx,ebx
 804a2f4:	89 d3                	mov    ebx,edx
 804a2f6:	89 d6                	mov    esi,edx
 804a2f8:	c1 ee 05             	shr    esi,0x5
 804a2fb:	c1 e3 04             	shl    ebx,0x4
 804a2fe:	31 f3                	xor    ebx,esi
 804a300:	01 d3                	add    ebx,edx
 804a302:	81 f3 21 86 af ca    	xor    ebx,0xcaaf8621
 804a308:	29 d8                	sub    eax,ebx
 804a30a:	89 c3                	mov    ebx,eax
 804a30c:	89 c6                	mov    esi,eax
 804a30e:	c1 ee 05             	shr    esi,0x5
 804a311:	c1 e3 04             	shl    ebx,0x4
 804a314:	31 f3                	xor    ebx,esi
 804a316:	01 c3                	add    ebx,eax
 804a318:	81 f3 68 ec 9d 61    	xor    ebx,0x619dec68
 804a31e:	29 da                	sub    edx,ebx
 804a320:	89 d3                	mov    ebx,edx
 804a322:	89 d6                	mov    esi,edx
 804a324:	c1 e3 04             	shl    ebx,0x4
 804a327:	c1 ee 05             	shr    esi,0x5
 804a32a:	31 f3                	xor    ebx,esi
 804a32c:	01 d3                	add    ebx,edx
 804a32e:	81 f3 68 ec 9d 61    	xor    ebx,0x619dec68
 804a334:	29 d8                	sub    eax,ebx
 804a336:	89 c3                	mov    ebx,eax
 804a338:	89 c6                	mov    esi,eax
 804a33a:	c1 ee 05             	shr    esi,0x5
 804a33d:	c1 e3 04             	shl    ebx,0x4
 804a340:	31 f3                	xor    ebx,esi
 804a342:	01 c3                	add    ebx,eax
 804a344:	81 f3 af 92 40 8e    	xor    ebx,0x8e4092af
 804a34a:	29 da                	sub    edx,ebx
 804a34c:	89 d3                	mov    ebx,edx
 804a34e:	89 d6                	mov    esi,edx
 804a350:	c1 ee 05             	shr    esi,0x5
 804a353:	c1 e3 04             	shl    ebx,0x4
 804a356:	31 f3                	xor    ebx,esi
 804a358:	01 d3                	add    ebx,edx
 804a35a:	81 f3 91 61 40 e1    	xor    ebx,0xe1406191
 804a360:	29 d8                	sub    eax,ebx
 804a362:	89 c3                	mov    ebx,eax
 804a364:	89 c6                	mov    esi,eax
 804a366:	c1 ee 05             	shr    esi,0x5
 804a369:	c1 e3 04             	shl    ebx,0x4
 804a36c:	31 f3                	xor    ebx,esi
 804a36e:	01 c3                	add    ebx,eax
 804a370:	81 f3 a7 e3 59 2f    	xor    ebx,0x2f59e3a7
 804a376:	29 da                	sub    edx,ebx
 804a378:	89 d3                	mov    ebx,edx
 804a37a:	89 d6                	mov    esi,edx
 804a37c:	c1 ee 05             	shr    esi,0x5
 804a37f:	c1 e3 04             	shl    ebx,0x4
 804a382:	31 f3                	xor    ebx,esi
 804a384:	01 d3                	add    ebx,edx
 804a386:	81 f3 a7 e3 59 2f    	xor    ebx,0x2f59e3a7
 804a38c:	29 d8                	sub    eax,ebx
 804a38e:	89 c3                	mov    ebx,eax
 804a390:	89 c6                	mov    esi,eax
 804a392:	c1 ee 05             	shr    esi,0x5
 804a395:	c1 e3 04             	shl    ebx,0x4
 804a398:	31 f3                	xor    ebx,esi
 804a39a:	01 c3                	add    ebx,eax
 804a39c:	81 f3 1f 6e d1 a4    	xor    ebx,0xa4d16e1f
 804a3a2:	29 da                	sub    edx,ebx
 804a3a4:	89 d3                	mov    ebx,edx
 804a3a6:	89 d6                	mov    esi,edx
 804a3a8:	c1 ee 05             	shr    esi,0x5
 804a3ab:	c1 e3 04             	shl    ebx,0x4
 804a3ae:	31 f3                	xor    ebx,esi
 804a3b0:	01 d3                	add    ebx,edx
 804a3b2:	81 f3 ee 69 22 91    	xor    ebx,0x912269ee
 804a3b8:	29 d8                	sub    eax,ebx
 804a3ba:	89 c3                	mov    ebx,eax
 804a3bc:	89 c6                	mov    esi,eax
 804a3be:	c1 ee 05             	shr    esi,0x5
 804a3c1:	c1 e3 04             	shl    ebx,0x4
 804a3c4:	31 f3                	xor    ebx,esi
 804a3c6:	01 c3                	add    ebx,eax
 804a3c8:	81 f3 84 05 c0 e8    	xor    ebx,0xe8c00584
 804a3ce:	29 da                	sub    edx,ebx
 804a3d0:	89 d3                	mov    ebx,edx
 804a3d2:	89 d6                	mov    esi,edx
 804a3d4:	c1 ee 05             	shr    esi,0x5
 804a3d7:	c1 e3 04             	shl    ebx,0x4
 804a3da:	31 f3                	xor    ebx,esi
 804a3dc:	01 d3                	add    ebx,edx
 804a3de:	81 f3 84 25 9a b3    	xor    ebx,0xb39a2584
 804a3e4:	29 d8                	sub    eax,ebx
 804a3e6:	89 c3                	mov    ebx,eax
 804a3e8:	89 c6                	mov    esi,eax
 804a3ea:	c1 ee 05             	shr    esi,0x5
 804a3ed:	c1 e3 04             	shl    ebx,0x4
 804a3f0:	31 f3                	xor    ebx,esi
 804a3f2:	01 c3                	add    ebx,eax
 804a3f4:	81 f3 cb ab 62 15    	xor    ebx,0x1562abcb
 804a3fa:	29 da                	sub    edx,ebx
 804a3fc:	89 d3                	mov    ebx,edx
 804a3fe:	89 d6                	mov    esi,edx
 804a400:	c1 ee 05             	shr    esi,0x5
 804a403:	c1 e3 04             	shl    ebx,0x4
 804a406:	31 f3                	xor    ebx,esi
 804a408:	01 d3                	add    ebx,edx
 804a40a:	81 f3 cb 8b 88 4a    	xor    ebx,0x4a888bcb
 804a410:	29 d8                	sub    eax,ebx
 804a412:	89 c3                	mov    ebx,eax
 804a414:	89 c6                	mov    esi,eax
 804a416:	c1 ee 05             	shr    esi,0x5
 804a419:	c1 e3 04             	shl    ebx,0x4
 804a41c:	31 f3                	xor    ebx,esi
 804a41e:	01 c3                	add    ebx,eax
 804a420:	81 f3 c3 fc 7b b6    	xor    ebx,0xb67bfcc3
 804a426:	29 da                	sub    edx,ebx
 804a428:	89 d3                	mov    ebx,edx
 804a42a:	89 d6                	mov    esi,edx
 804a42c:	c1 ee 05             	shr    esi,0x5
 804a42f:	c1 e3 04             	shl    ebx,0x4
 804a432:	31 f3                	xor    ebx,esi
 804a434:	01 d3                	add    ebx,edx
 804a436:	81 f3 f4 00 2b ca    	xor    ebx,0xca2b00f4
 804a43c:	29 d8                	sub    eax,ebx
 804a43e:	89 c3                	mov    ebx,eax
 804a440:	89 c6                	mov    esi,eax
 804a442:	c1 ee 05             	shr    esi,0x5
 804a445:	c1 e3 04             	shl    ebx,0x4
 804a448:	31 f3                	xor    ebx,esi
 804a44a:	01 c3                	add    ebx,eax
 804a44c:	81 f3 3b 87 f3 2b    	xor    ebx,0x2bf3873b
 804a452:	29 da                	sub    edx,ebx
 804a454:	89 d3                	mov    ebx,edx
 804a456:	89 d6                	mov    esi,edx
 804a458:	c1 ee 05             	shr    esi,0x5
 804a45b:	c1 e3 04             	shl    ebx,0x4
 804a45e:	31 f3                	xor    ebx,esi
 804a460:	01 d3                	add    ebx,edx
 804a462:	81 f3 0a 83 44 18    	xor    ebx,0x1844830a
 804a468:	29 d8                	sub    eax,ebx
 804a46a:	89 c3                	mov    ebx,eax
 804a46c:	89 c6                	mov    esi,eax
 804a46e:	c1 ee 05             	shr    esi,0x5
 804a471:	c1 e3 04             	shl    ebx,0x4
 804a474:	31 f3                	xor    ebx,esi
 804a476:	01 c3                	add    ebx,eax
 804a478:	81 f3 a0 1e e2 6f    	xor    ebx,0x6fe21ea0
 804a47e:	29 da                	sub    edx,ebx
 804a480:	89 d3                	mov    ebx,edx
 804a482:	89 d6                	mov    esi,edx
 804a484:	c1 e3 04             	shl    ebx,0x4
 804a487:	c1 ee 05             	shr    esi,0x5
 804a48a:	31 f3                	xor    ebx,esi
 804a48c:	01 d3                	add    ebx,edx
 804a48e:	81 f3 51 09 0d 7a    	xor    ebx,0x7a0d0951
 804a494:	29 d8                	sub    eax,ebx
 804a496:	89 c3                	mov    ebx,eax
 804a498:	89 c6                	mov    esi,eax
 804a49a:	c1 ee 05             	shr    esi,0x5
 804a49d:	c1 e3 04             	shl    ebx,0x4
 804a4a0:	31 f3                	xor    ebx,esi
 804a4a2:	01 c3                	add    ebx,eax
 804a4a4:	81 f3 e7 c4 84 9c    	xor    ebx,0x9c84c4e7
 804a4aa:	29 da                	sub    edx,ebx
 804a4ac:	89 d3                	mov    ebx,edx
 804a4ae:	89 d6                	mov    esi,edx
 804a4b0:	c1 ee 05             	shr    esi,0x5
 804a4b3:	c1 e3 04             	shl    ebx,0x4
 804a4b6:	31 f3                	xor    ebx,esi
 804a4b8:	01 d3                	add    ebx,edx
 804a4ba:	81 f3 e7 c4 84 9c    	xor    ebx,0x9c84c4e7
 804a4c0:	29 d8                	sub    eax,ebx
 804a4c2:	89 c3                	mov    ebx,eax
 804a4c4:	89 c6                	mov    esi,eax
 804a4c6:	c1 ee 05             	shr    esi,0x5
 804a4c9:	c1 e3 04             	shl    ebx,0x4
 804a4cc:	31 f3                	xor    ebx,esi
 804a4ce:	01 c3                	add    ebx,eax
 804a4d0:	81 f3 df 15 9e 3d    	xor    ebx,0x3d9e15df
 804a4d6:	29 da                	sub    edx,ebx
 804a4d8:	89 d3                	mov    ebx,edx
 804a4da:	89 d6                	mov    esi,edx
 804a4dc:	c1 ee 05             	shr    esi,0x5
 804a4df:	c1 e3 04             	shl    ebx,0x4
 804a4e2:	31 f3                	xor    ebx,esi
 804a4e4:	01 d3                	add    ebx,edx
 804a4e6:	81 f3 2e 2b 73 33    	xor    ebx,0x33732b2e
 804a4ec:	29 d8                	sub    eax,ebx
 804a4ee:	89 c3                	mov    ebx,eax
 804a4f0:	89 c6                	mov    esi,eax
 804a4f2:	c1 ee 05             	shr    esi,0x5
 804a4f5:	c1 e3 04             	shl    ebx,0x4
 804a4f8:	31 f3                	xor    ebx,esi
 804a4fa:	01 c3                	add    ebx,eax
 804a4fc:	81 f3 57 a0 15 b3    	xor    ebx,0xb315a057
 804a502:	29 da                	sub    edx,ebx
 804a504:	89 d3                	mov    ebx,edx
 804a506:	89 d6                	mov    esi,edx
 804a508:	c1 ee 05             	shr    esi,0x5
 804a50b:	c1 e3 04             	shl    ebx,0x4
 804a50e:	31 f3                	xor    ebx,esi
 804a510:	01 d3                	add    ebx,edx
 804a512:	81 f3 57 a0 15 b3    	xor    ebx,0xb315a057
 804a518:	29 d8                	sub    eax,ebx
 804a51a:	89 c3                	mov    ebx,eax
 804a51c:	89 c6                	mov    esi,eax
 804a51e:	c1 ee 05             	shr    esi,0x5
 804a521:	c1 e3 04             	shl    ebx,0x4
 804a524:	31 f3                	xor    ebx,esi
 804a526:	01 c3                	add    ebx,eax
 804a528:	81 f3 bc 37 04 f7    	xor    ebx,0xf70437bc
 804a52e:	29 da                	sub    edx,ebx
 804a530:	89 d3                	mov    ebx,edx
 804a532:	89 d6                	mov    esi,edx
 804a534:	c1 ee 05             	shr    esi,0x5
 804a537:	c1 e3 04             	shl    ebx,0x4
 804a53a:	31 f3                	xor    ebx,esi
 804a53c:	01 d3                	add    ebx,edx
 804a53e:	81 f3 9e 26 de 14    	xor    ebx,0x14de269e
 804a544:	29 d8                	sub    eax,ebx
 804a546:	89 c3                	mov    ebx,eax
 804a548:	89 c6                	mov    esi,eax
 804a54a:	c1 ee 05             	shr    esi,0x5
 804a54d:	c1 e3 04             	shl    ebx,0x4
 804a550:	31 f3                	xor    ebx,esi
 804a552:	01 c3                	add    ebx,eax
 804a554:	81 f3 03 de a6 23    	xor    ebx,0x23a6de03
 804a55a:	29 da                	sub    edx,ebx
 804a55c:	89 d3                	mov    ebx,edx
 804a55e:	89 d6                	mov    esi,edx
 804a560:	c1 ee 05             	shr    esi,0x5
 804a563:	c1 e3 04             	shl    ebx,0x4
 804a566:	31 f3                	xor    ebx,esi
 804a568:	01 d3                	add    ebx,edx
 804a56a:	81 f3 b4 a8 f7 62    	xor    ebx,0x62f7a8b4
 804a570:	29 d8                	sub    eax,ebx
 804a572:	89 c3                	mov    ebx,eax
 804a574:	89 c6                	mov    esi,eax
 804a576:	c1 ee 05             	shr    esi,0x5
 804a579:	c1 e3 04             	shl    ebx,0x4
 804a57c:	31 f3                	xor    ebx,esi
 804a57e:	01 c3                	add    ebx,eax
 804a580:	81 f3 fb 2e c0 c4    	xor    ebx,0xc4c02efb
 804a586:	29 da                	sub    edx,ebx
 804a588:	89 d3                	mov    ebx,edx
 804a58a:	89 d6                	mov    esi,edx
 804a58c:	c1 ee 05             	shr    esi,0x5
 804a58f:	c1 e3 04             	shl    ebx,0x4
 804a592:	31 f3                	xor    ebx,esi
 804a594:	01 d3                	add    ebx,edx
 804a596:	81 f3 4a 64 6f 85    	xor    ebx,0x856f644a
 804a59c:	29 d8                	sub    eax,ebx
 804a59e:	89 c3                	mov    ebx,eax
 804a5a0:	89 c6                	mov    esi,eax
 804a5a2:	c1 ee 05             	shr    esi,0x5
 804a5a5:	c1 e3 04             	shl    ebx,0x4
 804a5a8:	31 f3                	xor    ebx,esi
 804a5aa:	01 c3                	add    ebx,eax
 804a5ac:	81 f3 73 b9 37 3a    	xor    ebx,0x3a37b973
 804a5b2:	29 da                	sub    edx,ebx
 804a5b4:	89 d3                	mov    ebx,edx
 804a5b6:	89 d6                	mov    esi,edx
 804a5b8:	c1 ee 05             	shr    esi,0x5
 804a5bb:	c1 e3 04             	shl    ebx,0x4
 804a5be:	31 f3                	xor    ebx,esi
 804a5c0:	01 d3                	add    ebx,edx
 804a5c2:	81 f3 91 ca 5d 1c    	xor    ebx,0x1c5dca91
 804a5c8:	29 d8                	sub    eax,ebx
 804a5ca:	89 c3                	mov    ebx,eax
 804a5cc:	89 c6                	mov    esi,eax
 804a5ce:	c1 ee 05             	shr    esi,0x5
 804a5d1:	c1 e3 04             	shl    ebx,0x4
 804a5d4:	31 f3                	xor    ebx,esi
 804a5d6:	01 c3                	add    ebx,eax
 804a5d8:	81 f3 d8 50 26 7e    	xor    ebx,0x7e2650d8
 804a5de:	29 da                	sub    edx,ebx
 804a5e0:	89 d3                	mov    ebx,edx
 804a5e2:	89 d6                	mov    esi,edx
 804a5e4:	c1 e3 04             	shl    ebx,0x4
 804a5e7:	c1 ee 05             	shr    esi,0x5
 804a5ea:	31 f3                	xor    ebx,esi
 804a5ec:	01 d3                	add    ebx,edx
 804a5ee:	81 f3 ba 3f 00 9c    	xor    ebx,0x9c003fba
 804a5f4:	29 d8                	sub    eax,ebx
 804a5f6:	89 c3                	mov    ebx,eax
 804a5f8:	89 c6                	mov    esi,eax
 804a5fa:	c1 ee 05             	shr    esi,0x5
 804a5fd:	c1 e3 04             	shl    ebx,0x4
 804a600:	31 f3                	xor    ebx,esi
 804a602:	01 c3                	add    ebx,eax
 804a604:	81 f3 1f f7 c8 aa    	xor    ebx,0xaac8f71f
 804a60a:	29 da                	sub    edx,ebx
 804a60c:	89 d3                	mov    ebx,edx
 804a60e:	89 d6                	mov    esi,edx
 804a610:	c1 ee 05             	shr    esi,0x5
 804a613:	c1 e3 04             	shl    ebx,0x4
 804a616:	31 f3                	xor    ebx,esi
 804a618:	01 d3                	add    ebx,edx
 804a61a:	81 f3 01 c6 c8 fd    	xor    ebx,0xfdc8c601
 804a620:	29 d8                	sub    eax,ebx
 804a622:	89 c3                	mov    ebx,eax
 804a624:	89 c6                	mov    esi,eax
 804a626:	c1 ee 05             	shr    esi,0x5
 804a629:	c1 e3 04             	shl    ebx,0x4
 804a62c:	31 f3                	xor    ebx,esi
 804a62e:	01 c3                	add    ebx,eax
 804a630:	81 f3 17 48 e2 4b    	xor    ebx,0x4be24817
 804a636:	29 da                	sub    edx,ebx
 804a638:	89 d3                	mov    ebx,edx
 804a63a:	89 d6                	mov    esi,edx
 804a63c:	c1 ee 05             	shr    esi,0x5
 804a63f:	c1 e3 04             	shl    ebx,0x4
 804a642:	31 f3                	xor    ebx,esi
 804a644:	01 d3                	add    ebx,edx
 804a646:	81 f3 17 48 e2 4b    	xor    ebx,0x4be24817
 804a64c:	29 d8                	sub    eax,ebx
 804a64e:	89 c3                	mov    ebx,eax
 804a650:	89 c6                	mov    esi,eax
 804a652:	c1 ee 05             	shr    esi,0x5
 804a655:	c1 e3 04             	shl    ebx,0x4
 804a658:	31 f3                	xor    ebx,esi
 804a65a:	01 c3                	add    ebx,eax
 804a65c:	81 f3 8f d2 59 c1    	xor    ebx,0xc159d28f
 804a662:	29 da                	sub    edx,ebx
 804a664:	89 d3                	mov    ebx,edx
 804a666:	89 d6                	mov    esi,edx
 804a668:	c1 ee 05             	shr    esi,0x5
 804a66b:	c1 e3 04             	shl    ebx,0x4
 804a66e:	31 f3                	xor    ebx,esi
 804a670:	01 d3                	add    ebx,edx
 804a672:	81 f3 ad 03 5a 6e    	xor    ebx,0x6e5a03ad
 804a678:	29 d8                	sub    eax,ebx
 804a67a:	89 c3                	mov    ebx,eax
 804a67c:	89 c6                	mov    esi,eax
 804a67e:	c1 ee 05             	shr    esi,0x5
 804a681:	c1 e3 04             	shl    ebx,0x4
 804a684:	31 f3                	xor    ebx,esi
 804a686:	01 c3                	add    ebx,eax
 804a688:	81 f3 f4 69 48 05    	xor    ebx,0x54869f4
 804a68e:	29 da                	sub    edx,ebx
 804a690:	89 d3                	mov    ebx,edx
 804a692:	89 d6                	mov    esi,edx
 804a694:	c1 ee 05             	shr    esi,0x5
 804a697:	c1 e3 04             	shl    ebx,0x4
 804a69a:	31 f3                	xor    ebx,esi
 804a69c:	01 d3                	add    ebx,edx
 804a69e:	81 f3 f4 69 48 05    	xor    ebx,0x54869f4
 804a6a4:	29 d8                	sub    eax,ebx
 804a6a6:	89 c3                	mov    ebx,eax
 804a6a8:	89 c6                	mov    esi,eax
 804a6aa:	c1 ee 05             	shr    esi,0x5
 804a6ad:	c1 e3 04             	shl    ebx,0x4
 804a6b0:	31 f3                	xor    ebx,esi
 804a6b2:	01 c3                	add    ebx,eax
 804a6b4:	81 f3 3b 10 eb 31    	xor    ebx,0x31eb103b
 804a6ba:	29 da                	sub    edx,ebx
 804a6bc:	89 d3                	mov    ebx,edx
 804a6be:	89 d6                	mov    esi,edx
 804a6c0:	c1 ee 05             	shr    esi,0x5
 804a6c3:	c1 e3 04             	shl    ebx,0x4
 804a6c6:	31 f3                	xor    ebx,esi
 804a6c8:	01 d3                	add    ebx,edx
 804a6ca:	81 f3 1d df ea 84    	xor    ebx,0x84eadf1d
 804a6d0:	29 d8                	sub    eax,ebx
 804a6d2:	89 c3                	mov    ebx,eax
 804a6d4:	89 c6                	mov    esi,eax
 804a6d6:	c1 ee 05             	shr    esi,0x5
 804a6d9:	c1 e3 04             	shl    ebx,0x4
 804a6dc:	31 f3                	xor    ebx,esi
 804a6de:	01 c3                	add    ebx,eax
 804a6e0:	81 f3 33 61 04 d3    	xor    ebx,0xd3046133
 804a6e6:	29 da                	sub    edx,ebx
 804a6e8:	89 d3                	mov    ebx,edx
 804a6ea:	89 d6                	mov    esi,edx
 804a6ec:	c1 ee 05             	shr    esi,0x5
 804a6ef:	c1 e3 04             	shl    ebx,0x4
 804a6f2:	31 f3                	xor    ebx,esi
 804a6f4:	01 d3                	add    ebx,edx
 804a6f6:	81 f3 64 65 b3 e6    	xor    ebx,0xe6b36564
 804a6fc:	29 d8                	sub    eax,ebx
 804a6fe:	89 c3                	mov    ebx,eax
 804a700:	89 c6                	mov    esi,eax
 804a702:	c1 ee 05             	shr    esi,0x5
 804a705:	c1 e3 04             	shl    ebx,0x4
 804a708:	31 f3                	xor    ebx,esi
 804a70a:	01 c3                	add    ebx,eax
 804a70c:	81 f3 ab eb 7b 48    	xor    ebx,0x487bebab
 804a712:	29 da                	sub    edx,ebx
 804a714:	89 d3                	mov    ebx,edx
 804a716:	89 d6                	mov    esi,edx
 804a718:	c1 ee 05             	shr    esi,0x5
 804a71b:	c1 e3 04             	shl    ebx,0x4
 804a71e:	31 f3                	xor    ebx,esi
 804a720:	01 d3                	add    ebx,edx
 804a722:	81 f3 7a e7 cc 34    	xor    ebx,0x34cce77a
 804a728:	29 d8                	sub    eax,ebx
 804a72a:	89 c3                	mov    ebx,eax
 804a72c:	89 c6                	mov    esi,eax
 804a72e:	c1 ee 05             	shr    esi,0x5
 804a731:	c1 e3 04             	shl    ebx,0x4
 804a734:	31 f3                	xor    ebx,esi
 804a736:	01 c3                	add    ebx,eax
 804a738:	81 f3 10 83 6a 8c    	xor    ebx,0x8c6a8310
 804a73e:	29 da                	sub    edx,ebx
 804a740:	89 d3                	mov    ebx,edx
 804a742:	89 d6                	mov    esi,edx
 804a744:	c1 e3 04             	shl    ebx,0x4
 804a747:	c1 ee 05             	shr    esi,0x5
 804a74a:	31 f3                	xor    ebx,esi
 804a74c:	01 d3                	add    ebx,edx
 804a74e:	81 f3 10 a3 44 57    	xor    ebx,0x5744a310
 804a754:	29 d8                	sub    eax,ebx
 804a756:	89 c3                	mov    ebx,eax
 804a758:	89 c6                	mov    esi,eax
 804a75a:	c1 ee 05             	shr    esi,0x5
 804a75d:	c1 e3 04             	shl    ebx,0x4
 804a760:	31 f3                	xor    ebx,esi
 804a762:	01 c3                	add    ebx,eax
 804a764:	81 f3 57 29 0d b9    	xor    ebx,0xb90d2957
 804a76a:	29 da                	sub    edx,ebx
 804a76c:	89 d3                	mov    ebx,edx
 804a76e:	89 d6                	mov    esi,edx
 804a770:	c1 ee 05             	shr    esi,0x5
 804a773:	c1 e3 04             	shl    ebx,0x4
 804a776:	31 f3                	xor    ebx,esi
 804a778:	01 d3                	add    ebx,edx
 804a77a:	81 f3 57 09 33 ee    	xor    ebx,0xee330957
 804a780:	29 d8                	sub    eax,ebx
 804a782:	89 c3                	mov    ebx,eax
 804a784:	89 c6                	mov    esi,eax
 804a786:	c1 ee 05             	shr    esi,0x5
 804a789:	c1 e3 04             	shl    ebx,0x4
 804a78c:	31 f3                	xor    ebx,esi
 804a78e:	01 c3                	add    ebx,eax
 804a790:	81 f3 4f 7a 26 5a    	xor    ebx,0x5a267a4f
 804a796:	29 da                	sub    edx,ebx
 804a798:	89 d3                	mov    ebx,edx
 804a79a:	89 d6                	mov    esi,edx
 804a79c:	c1 ee 05             	shr    esi,0x5
 804a79f:	c1 e3 04             	shl    ebx,0x4
 804a7a2:	31 f3                	xor    ebx,esi
 804a7a4:	01 d3                	add    ebx,edx
 804a7a6:	81 f3 9e 8f fb 4f    	xor    ebx,0x4ffb8f9e
 804a7ac:	29 d8                	sub    eax,ebx
 804a7ae:	89 c3                	mov    ebx,eax
 804a7b0:	89 c6                	mov    esi,eax
 804a7b2:	c1 ee 05             	shr    esi,0x5
 804a7b5:	c1 e3 04             	shl    ebx,0x4
 804a7b8:	31 f3                	xor    ebx,esi
 804a7ba:	01 c3                	add    ebx,eax
 804a7bc:	81 f3 c7 04 9e cf    	xor    ebx,0xcf9e04c7
 804a7c2:	29 da                	sub    edx,ebx
 804a7c4:	89 d3                	mov    ebx,edx
 804a7c6:	89 d6                	mov    esi,edx
 804a7c8:	c1 ee 05             	shr    esi,0x5
 804a7cb:	c1 e3 04             	shl    ebx,0x4
 804a7ce:	31 f3                	xor    ebx,esi
 804a7d0:	01 d3                	add    ebx,edx
 804a7d2:	81 f3 c7 04 9e cf    	xor    ebx,0xcf9e04c7
 804a7d8:	29 d8                	sub    eax,ebx
 804a7da:	89 c3                	mov    ebx,eax
 804a7dc:	89 c6                	mov    esi,eax
 804a7de:	c1 ee 05             	shr    esi,0x5
 804a7e1:	c1 e3 04             	shl    ebx,0x4
 804a7e4:	31 f3                	xor    ebx,esi
 804a7e6:	01 c3                	add    ebx,eax
 804a7e8:	81 f3 2c 9c 8c 13    	xor    ebx,0x138c9c2c
 804a7ee:	29 da                	sub    edx,ebx
 804a7f0:	89 d3                	mov    ebx,edx
 804a7f2:	89 d6                	mov    esi,edx
 804a7f4:	c1 ee 05             	shr    esi,0x5
 804a7f7:	c1 e3 04             	shl    ebx,0x4
 804a7fa:	31 f3                	xor    ebx,esi
 804a7fc:	01 d3                	add    ebx,edx
 804a7fe:	81 f3 dd 86 b7 1d    	xor    ebx,0x1db786dd
 804a804:	29 d8                	sub    eax,ebx
 804a806:	89 c3                	mov    ebx,eax
 804a808:	89 c6                	mov    esi,eax
 804a80a:	c1 ee 05             	shr    esi,0x5
 804a80d:	c1 e3 04             	shl    ebx,0x4
 804a810:	31 f3                	xor    ebx,esi
 804a812:	01 c3                	add    ebx,eax
 804a814:	81 f3 73 42 2f 40    	xor    ebx,0x402f4273
 804a81a:	29 da                	sub    edx,ebx
 804a81c:	89 d3                	mov    ebx,edx
 804a81e:	89 d6                	mov    esi,edx
 804a820:	c1 ee 05             	shr    esi,0x5
 804a823:	c1 e3 04             	shl    ebx,0x4
 804a826:	31 f3                	xor    ebx,esi
 804a828:	01 d3                	add    ebx,edx
 804a82a:	81 f3 73 42 2f 40    	xor    ebx,0x402f4273
 804a830:	29 d8                	sub    eax,ebx
 804a832:	89 c3                	mov    ebx,eax
 804a834:	89 c6                	mov    esi,eax
 804a836:	c1 ee 05             	shr    esi,0x5
 804a839:	c1 e3 04             	shl    ebx,0x4
 804a83c:	31 f3                	xor    ebx,esi
 804a83e:	01 c3                	add    ebx,eax
 804a840:	81 f3 6b 93 48 e1    	xor    ebx,0xe148936b
 804a846:	29 da                	sub    edx,ebx
 804a848:	89 d3                	mov    ebx,edx
 804a84a:	89 d6                	mov    esi,edx
 804a84c:	c1 ee 05             	shr    esi,0x5
 804a84f:	c1 e3 04             	shl    ebx,0x4
 804a852:	31 f3                	xor    ebx,esi
 804a854:	01 d3                	add    ebx,edx
 804a856:	81 f3 ba a8 1d d7    	xor    ebx,0xd71da8ba
 804a85c:	29 d8                	sub    eax,ebx
 804a85e:	89 c3                	mov    ebx,eax
 804a860:	89 c6                	mov    esi,eax
 804a862:	c1 ee 05             	shr    esi,0x5
 804a865:	c1 e3 04             	shl    ebx,0x4
 804a868:	31 f3                	xor    ebx,esi
 804a86a:	01 c3                	add    ebx,eax
 804a86c:	81 f3 e3 1d c0 56    	xor    ebx,0x56c01de3
 804a872:	29 da                	sub    edx,ebx
 804a874:	89 d3                	mov    ebx,edx
 804a876:	89 d6                	mov    esi,edx
 804a878:	c1 ee 05             	shr    esi,0x5
 804a87b:	c1 e3 04             	shl    ebx,0x4
 804a87e:	31 f3                	xor    ebx,esi
 804a880:	01 d3                	add    ebx,edx
 804a882:	81 f3 01 2f e6 38    	xor    ebx,0x38e62f01
 804a888:	29 d8                	sub    eax,ebx
 804a88a:	89 c3                	mov    ebx,eax
 804a88c:	89 c6                	mov    esi,eax
 804a88e:	c1 ee 05             	shr    esi,0x5
 804a891:	c1 e3 04             	shl    ebx,0x4
 804a894:	31 f3                	xor    ebx,esi
 804a896:	01 c3                	add    ebx,eax
 804a898:	81 f3 48 b5 ae 9a    	xor    ebx,0x9aaeb548
 804a89e:	29 da                	sub    edx,ebx
 804a8a0:	89 d3                	mov    ebx,edx
 804a8a2:	89 d6                	mov    esi,edx
 804a8a4:	c1 e3 04             	shl    ebx,0x4
 804a8a7:	c1 ee 05             	shr    esi,0x5
 804a8aa:	31 f3                	xor    ebx,esi
 804a8ac:	01 d3                	add    ebx,edx
 804a8ae:	81 f3 2a a4 88 b8    	xor    ebx,0xb888a42a
 804a8b4:	29 d8                	sub    eax,ebx
 804a8b6:	89 c3                	mov    ebx,eax
 804a8b8:	89 c6                	mov    esi,eax
 804a8ba:	c1 ee 05             	shr    esi,0x5
 804a8bd:	c1 e3 04             	shl    ebx,0x4
 804a8c0:	31 f3                	xor    ebx,esi
 804a8c2:	01 c3                	add    ebx,eax
 804a8c4:	81 f3 8f 5b 51 c7    	xor    ebx,0xc7515b8f
 804a8ca:	29 da                	sub    edx,ebx
 804a8cc:	89 d3                	mov    ebx,edx
 804a8ce:	89 d6                	mov    esi,edx
 804a8d0:	c1 ee 05             	shr    esi,0x5
 804a8d3:	c1 e3 04             	shl    ebx,0x4
 804a8d6:	31 f3                	xor    ebx,esi
 804a8d8:	01 d3                	add    ebx,edx
 804a8da:	81 f3 40 26 a2 06    	xor    ebx,0x6a22640
 804a8e0:	29 d8                	sub    eax,ebx
 804a8e2:	89 c3                	mov    ebx,eax
 804a8e4:	89 c6                	mov    esi,eax
 804a8e6:	c1 ee 05             	shr    esi,0x5
 804a8e9:	c1 e3 04             	shl    ebx,0x4
 804a8ec:	31 f3                	xor    ebx,esi
 804a8ee:	01 c3                	add    ebx,eax
 804a8f0:	81 f3 87 ac 6a 68    	xor    ebx,0x686aac87
 804a8f6:	29 da                	sub    edx,ebx
 804a8f8:	89 d3                	mov    ebx,edx
 804a8fa:	89 d6                	mov    esi,edx
 804a8fc:	c1 ee 05             	shr    esi,0x5
 804a8ff:	c1 e3 04             	shl    ebx,0x4
 804a902:	31 f3                	xor    ebx,esi
 804a904:	01 d3                	add    ebx,edx
 804a906:	81 f3 d6 e1 19 29    	xor    ebx,0x2919e1d6
 804a90c:	29 d8                	sub    eax,ebx
 804a90e:	89 c3                	mov    ebx,eax
 804a910:	89 c6                	mov    esi,eax
 804a912:	c1 ee 05             	shr    esi,0x5
 804a915:	c1 e3 04             	shl    ebx,0x4
 804a918:	31 f3                	xor    ebx,esi
 804a91a:	01 c3                	add    ebx,eax
 804a91c:	81 f3 ff 36 e2 dd    	xor    ebx,0xdde236ff
 804a922:	29 da                	sub    edx,ebx
 804a924:	89 d3                	mov    ebx,edx
 804a926:	89 d6                	mov    esi,edx
 804a928:	c1 ee 05             	shr    esi,0x5
 804a92b:	c1 e3 04             	shl    ebx,0x4
 804a92e:	31 f3                	xor    ebx,esi
 804a930:	01 d3                	add    ebx,edx
 804a932:	81 f3 1d 48 08 c0    	xor    ebx,0xc008481d
 804a938:	29 d8                	sub    eax,ebx
 804a93a:	89 c3                	mov    ebx,eax
 804a93c:	89 c6                	mov    esi,eax
 804a93e:	c1 ee 05             	shr    esi,0x5
 804a941:	c1 e3 04             	shl    ebx,0x4
 804a944:	31 f3                	xor    ebx,esi
 804a946:	01 c3                	add    ebx,eax
 804a948:	81 f3 64 ce d0 21    	xor    ebx,0x21d0ce64
 804a94e:	29 da                	sub    edx,ebx
 804a950:	89 d3                	mov    ebx,edx
 804a952:	89 d6                	mov    esi,edx
 804a954:	c1 ee 05             	shr    esi,0x5
 804a957:	c1 e3 04             	shl    ebx,0x4
 804a95a:	31 f3                	xor    ebx,esi
 804a95c:	01 d3                	add    ebx,edx
 804a95e:	81 f3 64 ce d0 21    	xor    ebx,0x21d0ce64
 804a964:	29 d8                	sub    eax,ebx
 804a966:	89 c3                	mov    ebx,eax
 804a968:	89 c6                	mov    esi,eax
 804a96a:	c1 ee 05             	shr    esi,0x5
 804a96d:	c1 e3 04             	shl    ebx,0x4
 804a970:	31 f3                	xor    ebx,esi
 804a972:	01 c3                	add    ebx,eax
 804a974:	81 f3 ab 74 73 4e    	xor    ebx,0x4e7374ab
 804a97a:	29 da                	sub    edx,ebx
 804a97c:	89 d3                	mov    ebx,edx
 804a97e:	89 d6                	mov    esi,edx
 804a980:	c1 ee 05             	shr    esi,0x5
 804a983:	c1 e3 04             	shl    ebx,0x4
 804a986:	31 f3                	xor    ebx,esi
 804a988:	01 d3                	add    ebx,edx
 804a98a:	81 f3 8d 43 73 a1    	xor    ebx,0xa173438d
 804a990:	29 d8                	sub    eax,ebx
 804a992:	89 c3                	mov    ebx,eax
 804a994:	89 c6                	mov    esi,eax
 804a996:	c1 ee 05             	shr    esi,0x5
 804a999:	c1 e3 04             	shl    ebx,0x4
 804a99c:	31 f3                	xor    ebx,esi
 804a99e:	01 c3                	add    ebx,eax
 804a9a0:	81 f3 a3 c5 8c ef    	xor    ebx,0xef8cc5a3
 804a9a6:	29 da                	sub    edx,ebx
 804a9a8:	89 d3                	mov    ebx,edx
 804a9aa:	89 d6                	mov    esi,edx
 804a9ac:	c1 ee 05             	shr    esi,0x5
 804a9af:	c1 e3 04             	shl    ebx,0x4
 804a9b2:	31 f3                	xor    ebx,esi
 804a9b4:	01 d3                	add    ebx,edx
 804a9b6:	81 f3 a3 c5 8c ef    	xor    ebx,0xef8cc5a3
 804a9bc:	29 d8                	sub    eax,ebx
 804a9be:	89 c3                	mov    ebx,eax
 804a9c0:	89 c6                	mov    esi,eax
 804a9c2:	c1 ee 05             	shr    esi,0x5
 804a9c5:	c1 e3 04             	shl    ebx,0x4
 804a9c8:	31 f3                	xor    ebx,esi
 804a9ca:	01 c3                	add    ebx,eax
 804a9cc:	81 f3 1b 50 04 65    	xor    ebx,0x6504501b
 804a9d2:	29 da                	sub    edx,ebx
 804a9d4:	89 d3                	mov    ebx,edx
 804a9d6:	89 d6                	mov    esi,edx
 804a9d8:	c1 ee 05             	shr    esi,0x5
 804a9db:	c1 e3 04             	shl    ebx,0x4
 804a9de:	31 f3                	xor    ebx,esi
 804a9e0:	01 d3                	add    ebx,edx
 804a9e2:	81 f3 39 81 04 12    	xor    ebx,0x12048139
 804a9e8:	29 d8                	sub    eax,ebx
 804a9ea:	89 c3                	mov    ebx,eax
 804a9ec:	89 c6                	mov    esi,eax
 804a9ee:	c1 ee 05             	shr    esi,0x5
 804a9f1:	c1 e3 04             	shl    ebx,0x4
 804a9f4:	31 f3                	xor    ebx,esi
 804a9f6:	01 c3                	add    ebx,eax
 804a9f8:	81 f3 80 e7 f2 a8    	xor    ebx,0xa8f2e780
 804a9fe:	29 da                	sub    edx,ebx
 804aa00:	89 d3                	mov    ebx,edx
 804aa02:	89 d6                	mov    esi,edx
 804aa04:	c1 e3 04             	shl    ebx,0x4
 804aa07:	c1 ee 05             	shr    esi,0x5
 804aa0a:	31 f3                	xor    ebx,esi
 804aa0c:	01 d3                	add    ebx,edx
 804aa0e:	81 f3 80 07 cd 73    	xor    ebx,0x73cd0780
 804aa14:	29 d8                	sub    eax,ebx
 804aa16:	89 c3                	mov    ebx,eax
 804aa18:	89 c6                	mov    esi,eax
 804aa1a:	c1 ee 05             	shr    esi,0x5
 804aa1d:	c1 e3 04             	shl    ebx,0x4
 804aa20:	31 f3                	xor    ebx,esi
 804aa22:	01 c3                	add    ebx,eax
 804aa24:	81 f3 c7 8d 95 d5    	xor    ebx,0xd5958dc7
 804aa2a:	29 da                	sub    edx,ebx
 804aa2c:	89 d3                	mov    ebx,edx
 804aa2e:	89 d6                	mov    esi,edx
 804aa30:	c1 ee 05             	shr    esi,0x5
 804aa33:	c1 e3 04             	shl    ebx,0x4
 804aa36:	31 f3                	xor    ebx,esi
 804aa38:	01 d3                	add    ebx,edx
 804aa3a:	81 f3 c7 6d bb 0a    	xor    ebx,0xabb6dc7
 804aa40:	29 d8                	sub    eax,ebx
 804aa42:	89 c3                	mov    ebx,eax
 804aa44:	89 c6                	mov    esi,eax
 804aa46:	c1 ee 05             	shr    esi,0x5
 804aa49:	c1 e3 04             	shl    ebx,0x4
 804aa4c:	31 f3                	xor    ebx,esi
 804aa4e:	01 c3                	add    ebx,eax
 804aa50:	81 f3 bf de ae 76    	xor    ebx,0x76aedebf
 804aa56:	29 da                	sub    edx,ebx
 804aa58:	89 d3                	mov    ebx,edx
 804aa5a:	89 d6                	mov    esi,edx
 804aa5c:	c1 ee 05             	shr    esi,0x5
 804aa5f:	c1 e3 04             	shl    ebx,0x4
 804aa62:	31 f3                	xor    ebx,esi
 804aa64:	01 d3                	add    ebx,edx
 804aa66:	81 f3 f0 e2 5d 8a    	xor    ebx,0x8a5de2f0
 804aa6c:	29 d8                	sub    eax,ebx
 804aa6e:	89 c3                	mov    ebx,eax
 804aa70:	89 c6                	mov    esi,eax
 804aa72:	c1 ee 05             	shr    esi,0x5
 804aa75:	c1 e3 04             	shl    ebx,0x4
 804aa78:	31 f3                	xor    ebx,esi
 804aa7a:	01 c3                	add    ebx,eax
 804aa7c:	81 f3 37 69 26 ec    	xor    ebx,0xec266937
 804aa82:	29 da                	sub    edx,ebx
 804aa84:	89 d3                	mov    ebx,edx
 804aa86:	89 d6                	mov    esi,edx
 804aa88:	c1 ee 05             	shr    esi,0x5
 804aa8b:	c1 e3 04             	shl    ebx,0x4
 804aa8e:	31 f3                	xor    ebx,esi
 804aa90:	01 d3                	add    ebx,edx
 804aa92:	81 f3 06 65 77 d8    	xor    ebx,0xd8776506
 804aa98:	29 d8                	sub    eax,ebx
 804aa9a:	89 c3                	mov    ebx,eax
 804aa9c:	89 c6                	mov    esi,eax
 804aa9e:	c1 ee 05             	shr    esi,0x5
 804aaa1:	c1 e3 04             	shl    ebx,0x4
 804aaa4:	31 f3                	xor    ebx,esi
 804aaa6:	01 c3                	add    ebx,eax
 804aaa8:	81 f3 9c 00 15 30    	xor    ebx,0x3015009c
 804aaae:	29 da                	sub    edx,ebx
 804aab0:	89 d3                	mov    ebx,edx
 804aab2:	89 d6                	mov    esi,edx
 804aab4:	c1 ee 05             	shr    esi,0x5
 804aab7:	c1 e3 04             	shl    ebx,0x4
 804aaba:	31 f3                	xor    ebx,esi
 804aabc:	01 d3                	add    ebx,edx
 804aabe:	81 f3 9c 20 ef fa    	xor    ebx,0xfaef209c
 804aac4:	29 d8                	sub    eax,ebx
 804aac6:	89 c3                	mov    ebx,eax
 804aac8:	89 c6                	mov    esi,eax
 804aaca:	c1 ee 05             	shr    esi,0x5
 804aacd:	c1 e3 04             	shl    ebx,0x4
 804aad0:	31 f3                	xor    ebx,esi
 804aad2:	01 c3                	add    ebx,eax
 804aad4:	81 f3 e3 a6 b7 5c    	xor    ebx,0x5cb7a6e3
 804aada:	29 da                	sub    edx,ebx
 804aadc:	89 d3                	mov    ebx,edx
 804aade:	89 d6                	mov    esi,edx
 804aae0:	c1 ee 05             	shr    esi,0x5
 804aae3:	c1 e3 04             	shl    ebx,0x4
 804aae6:	31 f3                	xor    ebx,esi
 804aae8:	01 d3                	add    ebx,edx
 804aaea:	81 f3 e3 a6 b7 5c    	xor    ebx,0x5cb7a6e3
 804aaf0:	29 d8                	sub    eax,ebx
 804aaf2:	89 c3                	mov    ebx,eax
 804aaf4:	89 c6                	mov    esi,eax
 804aaf6:	c1 ee 05             	shr    esi,0x5
 804aaf9:	c1 e3 04             	shl    ebx,0x4
 804aafc:	31 f3                	xor    ebx,esi
 804aafe:	01 c3                	add    ebx,eax
 804ab00:	81 f3 db f7 d0 fd    	xor    ebx,0xfdd0f7db
 804ab06:	29 da                	sub    edx,ebx
 804ab08:	89 d3                	mov    ebx,edx
 804ab0a:	89 d6                	mov    esi,edx
 804ab0c:	c1 ee 05             	shr    esi,0x5
 804ab0f:	c1 e3 04             	shl    ebx,0x4
 804ab12:	31 f3                	xor    ebx,esi
 804ab14:	01 d3                	add    ebx,edx
 804ab16:	81 f3 2a 0d a6 f3    	xor    ebx,0xf3a60d2a
 804ab1c:	29 d8                	sub    eax,ebx
 804ab1e:	89 c3                	mov    ebx,eax
 804ab20:	89 c6                	mov    esi,eax
 804ab22:	c1 ee 05             	shr    esi,0x5
 804ab25:	c1 e3 04             	shl    ebx,0x4
 804ab28:	31 f3                	xor    ebx,esi
 804ab2a:	01 c3                	add    ebx,eax
 804ab2c:	81 f3 53 82 48 73    	xor    ebx,0x73488253
 804ab32:	29 da                	sub    edx,ebx
 804ab34:	89 d3                	mov    ebx,edx
 804ab36:	89 d6                	mov    esi,edx
 804ab38:	c1 ee 05             	shr    esi,0x5
 804ab3b:	c1 e3 04             	shl    ebx,0x4
 804ab3e:	31 f3                	xor    ebx,esi
 804ab40:	01 d3                	add    ebx,edx
 804ab42:	81 f3 53 82 48 73    	xor    ebx,0x73488253
 804ab48:	29 d8                	sub    eax,ebx
 804ab4a:	89 c3                	mov    ebx,eax
 804ab4c:	89 c6                	mov    esi,eax
 804ab4e:	c1 ee 05             	shr    esi,0x5
 804ab51:	c1 e3 04             	shl    ebx,0x4
 804ab54:	31 f3                	xor    ebx,esi
 804ab56:	01 c3                	add    ebx,eax
 804ab58:	81 f3 b8 19 37 b7    	xor    ebx,0xb73719b8
 804ab5e:	29 da                	sub    edx,ebx
 804ab60:	89 d3                	mov    ebx,edx
 804ab62:	89 d6                	mov    esi,edx
 804ab64:	c1 e3 04             	shl    ebx,0x4
 804ab67:	c1 ee 05             	shr    esi,0x5
 804ab6a:	31 f3                	xor    ebx,esi
 804ab6c:	01 d3                	add    ebx,edx
 804ab6e:	81 f3 69 04 62 c1    	xor    ebx,0xc1620469
 804ab74:	29 d8                	sub    eax,ebx
 804ab76:	89 c3                	mov    ebx,eax
 804ab78:	89 c6                	mov    esi,eax
 804ab7a:	c1 ee 05             	shr    esi,0x5
 804ab7d:	c1 e3 04             	shl    ebx,0x4
 804ab80:	31 f3                	xor    ebx,esi
 804ab82:	01 c3                	add    ebx,eax
 804ab84:	81 f3 ff bf d9 e3    	xor    ebx,0xe3d9bfff
 804ab8a:	29 da                	sub    edx,ebx
 804ab8c:	89 d3                	mov    ebx,edx
 804ab8e:	89 d6                	mov    esi,edx
 804ab90:	c1 ee 05             	shr    esi,0x5
 804ab93:	c1 e3 04             	shl    ebx,0x4
 804ab96:	31 f3                	xor    ebx,esi
 804ab98:	01 d3                	add    ebx,edx
 804ab9a:	81 f3 b0 8a 2a 23    	xor    ebx,0x232a8ab0
 804aba0:	29 d8                	sub    eax,ebx
 804aba2:	89 c3                	mov    ebx,eax
 804aba4:	89 c6                	mov    esi,eax
 804aba6:	c1 ee 05             	shr    esi,0x5
 804aba9:	c1 e3 04             	shl    ebx,0x4
 804abac:	31 f3                	xor    ebx,esi
 804abae:	01 c3                	add    ebx,eax
 804abb0:	81 f3 f7 10 f3 84    	xor    ebx,0x84f310f7
 804abb6:	29 da                	sub    edx,ebx
 804abb8:	89 d3                	mov    ebx,edx
 804abba:	89 d6                	mov    esi,edx
 804abbc:	c1 ee 05             	shr    esi,0x5
 804abbf:	c1 e3 04             	shl    ebx,0x4
 804abc2:	31 f3                	xor    ebx,esi
 804abc4:	01 d3                	add    ebx,edx
 804abc6:	81 f3 46 46 a2 45    	xor    ebx,0x45a24646
 804abcc:	29 d8                	sub    eax,ebx
 804abce:	89 c3                	mov    ebx,eax
 804abd0:	89 c6                	mov    esi,eax
 804abd2:	c1 ee 05             	shr    esi,0x5
 804abd5:	c1 e3 04             	shl    ebx,0x4
 804abd8:	31 f3                	xor    ebx,esi
 804abda:	01 c3                	add    ebx,eax
 804abdc:	81 f3 6f 9b 6a fa    	xor    ebx,0xfa6a9b6f
 804abe2:	29 da                	sub    edx,ebx
 804abe4:	89 d3                	mov    ebx,edx
 804abe6:	89 d6                	mov    esi,edx
 804abe8:	c1 ee 05             	shr    esi,0x5
 804abeb:	c1 e3 04             	shl    ebx,0x4
 804abee:	31 f3                	xor    ebx,esi
 804abf0:	01 d3                	add    ebx,edx
 804abf2:	81 f3 8d ac 90 dc    	xor    ebx,0xdc90ac8d
 804abf8:	29 d8                	sub    eax,ebx
 804abfa:	89 c3                	mov    ebx,eax
 804abfc:	89 c6                	mov    esi,eax
 804abfe:	c1 ee 05             	shr    esi,0x5
 804ac01:	c1 e3 04             	shl    ebx,0x4
 804ac04:	31 f3                	xor    ebx,esi
 804ac06:	01 c3                	add    ebx,eax
 804ac08:	81 f3 d4 32 59 3e    	xor    ebx,0x3e5932d4
 804ac0e:	29 da                	sub    edx,ebx
 804ac10:	89 d3                	mov    ebx,edx
 804ac12:	89 d6                	mov    esi,edx
 804ac14:	c1 ee 05             	shr    esi,0x5
 804ac17:	c1 e3 04             	shl    ebx,0x4
 804ac1a:	31 f3                	xor    ebx,esi
 804ac1c:	01 d3                	add    ebx,edx
 804ac1e:	81 f3 b6 21 33 5c    	xor    ebx,0x5c3321b6
 804ac24:	29 d8                	sub    eax,ebx
 804ac26:	89 c3                	mov    ebx,eax
 804ac28:	89 c6                	mov    esi,eax
 804ac2a:	c1 ee 05             	shr    esi,0x5
 804ac2d:	c1 e3 04             	shl    ebx,0x4
 804ac30:	31 f3                	xor    ebx,esi
 804ac32:	01 c3                	add    ebx,eax
 804ac34:	81 f3 1b d9 fb 6a    	xor    ebx,0x6afbd91b
 804ac3a:	29 da                	sub    edx,ebx
 804ac3c:	89 d3                	mov    ebx,edx
 804ac3e:	89 d6                	mov    esi,edx
 804ac40:	c1 ee 05             	shr    esi,0x5
 804ac43:	c1 e3 04             	shl    ebx,0x4
 804ac46:	31 f3                	xor    ebx,esi
 804ac48:	01 d3                	add    ebx,edx
 804ac4a:	81 f3 cc a3 4c aa    	xor    ebx,0xaa4ca3cc
 804ac50:	29 d8                	sub    eax,ebx
 804ac52:	89 c3                	mov    ebx,eax
 804ac54:	89 c6                	mov    esi,eax
 804ac56:	c1 ee 05             	shr    esi,0x5
 804ac59:	c1 e3 04             	shl    ebx,0x4
 804ac5c:	31 f3                	xor    ebx,esi
 804ac5e:	01 c3                	add    ebx,eax
 804ac60:	81 f3 13 2a 15 0c    	xor    ebx,0xc152a13
 804ac66:	29 da                	sub    edx,ebx
 804ac68:	89 d3                	mov    ebx,edx
 804ac6a:	89 d6                	mov    esi,edx
 804ac6c:	c1 ee 05             	shr    esi,0x5
 804ac6f:	c1 e3 04             	shl    ebx,0x4
 804ac72:	31 f3                	xor    ebx,esi
 804ac74:	01 d3                	add    ebx,edx
 804ac76:	81 f3 13 2a 15 0c    	xor    ebx,0xc152a13
 804ac7c:	29 d8                	sub    eax,ebx
 804ac7e:	89 c3                	mov    ebx,eax
 804ac80:	89 c6                	mov    esi,eax
 804ac82:	c1 ee 05             	shr    esi,0x5
 804ac85:	c1 e3 04             	shl    ebx,0x4
 804ac88:	31 f3                	xor    ebx,esi
 804ac8a:	01 c3                	add    ebx,eax
 804ac8c:	81 f3 8b b4 8c 81    	xor    ebx,0x818cb48b
 804ac92:	29 da                	sub    edx,ebx
 804ac94:	89 d3                	mov    ebx,edx
 804ac96:	89 d6                	mov    esi,edx
 804ac98:	c1 ee 05             	shr    esi,0x5
 804ac9b:	c1 e3 04             	shl    ebx,0x4
 804ac9e:	31 f3                	xor    ebx,esi
 804aca0:	01 d3                	add    ebx,edx
 804aca2:	81 f3 a9 e5 8c 2e    	xor    ebx,0x2e8ce5a9
 804aca8:	29 d8                	sub    eax,ebx
 804acaa:	89 c3                	mov    ebx,eax
 804acac:	89 c6                	mov    esi,eax
 804acae:	c1 ee 05             	shr    esi,0x5
 804acb1:	c1 e3 04             	shl    ebx,0x4
 804acb4:	31 f3                	xor    ebx,esi
 804acb6:	01 c3                	add    ebx,eax
 804acb8:	81 f3 f0 4b 7b c5    	xor    ebx,0xc57b4bf0
 804acbe:	29 da                	sub    edx,ebx
 804acc0:	89 d3                	mov    ebx,edx
 804acc2:	89 d6                	mov    esi,edx
 804acc4:	c1 e3 04             	shl    ebx,0x4
 804acc7:	c1 ee 05             	shr    esi,0x5
 804acca:	31 f3                	xor    ebx,esi
 804accc:	01 d3                	add    ebx,edx
 804acce:	81 f3 f0 4b 7b c5    	xor    ebx,0xc57b4bf0
 804acd4:	29 d8                	sub    eax,ebx
 804acd6:	89 c3                	mov    ebx,eax
 804acd8:	89 c6                	mov    esi,eax
 804acda:	c1 ee 05             	shr    esi,0x5
 804acdd:	c1 e3 04             	shl    ebx,0x4
 804ace0:	31 f3                	xor    ebx,esi
 804ace2:	01 c3                	add    ebx,eax
 804ace4:	81 f3 37 f2 1d f2    	xor    ebx,0xf21df237
 804acea:	29 da                	sub    edx,ebx
 804acec:	89 d3                	mov    ebx,edx
 804acee:	89 d6                	mov    esi,edx
 804acf0:	c1 ee 05             	shr    esi,0x5
 804acf3:	c1 e3 04             	shl    ebx,0x4
 804acf6:	31 f3                	xor    ebx,esi
 804acf8:	01 d3                	add    ebx,edx
 804acfa:	81 f3 19 c1 1d 45    	xor    ebx,0x451dc119
 804ad00:	29 d8                	sub    eax,ebx
 804ad02:	89 c3                	mov    ebx,eax
 804ad04:	89 c6                	mov    esi,eax
 804ad06:	c1 ee 05             	shr    esi,0x5
 804ad09:	c1 e3 04             	shl    ebx,0x4
 804ad0c:	31 f3                	xor    ebx,esi
 804ad0e:	01 c3                	add    ebx,eax
 804ad10:	81 f3 2f 43 37 93    	xor    ebx,0x9337432f
 804ad16:	29 da                	sub    edx,ebx
 804ad18:	89 d3                	mov    ebx,edx
 804ad1a:	89 d6                	mov    esi,edx
 804ad1c:	c1 ee 05             	shr    esi,0x5
 804ad1f:	c1 e3 04             	shl    ebx,0x4
 804ad22:	31 f3                	xor    ebx,esi
 804ad24:	01 d3                	add    ebx,edx
 804ad26:	81 f3 2f 43 37 93    	xor    ebx,0x9337432f
 804ad2c:	29 d8                	sub    eax,ebx
 804ad2e:	89 c3                	mov    ebx,eax
 804ad30:	89 c6                	mov    esi,eax
 804ad32:	c1 ee 05             	shr    esi,0x5
 804ad35:	c1 e3 04             	shl    ebx,0x4
 804ad38:	31 f3                	xor    ebx,esi
 804ad3a:	01 c3                	add    ebx,eax
 804ad3c:	81 f3 a7 cd ae 08    	xor    ebx,0x8aecda7
 804ad42:	29 da                	sub    edx,ebx
 804ad44:	89 d3                	mov    ebx,edx
 804ad46:	89 d6                	mov    esi,edx
 804ad48:	c1 ee 05             	shr    esi,0x5
 804ad4b:	c1 e3 04             	shl    ebx,0x4
 804ad4e:	31 f3                	xor    ebx,esi
 804ad50:	01 d3                	add    ebx,edx
 804ad52:	81 f3 76 c9 ff f4    	xor    ebx,0xf4ffc976
 804ad58:	29 d8                	sub    eax,ebx
 804ad5a:	89 c3                	mov    ebx,eax
 804ad5c:	89 c6                	mov    esi,eax
 804ad5e:	c1 ee 05             	shr    esi,0x5
 804ad61:	c1 e3 04             	shl    ebx,0x4
 804ad64:	31 f3                	xor    ebx,esi
 804ad66:	01 c3                	add    ebx,eax
 804ad68:	81 f3 0c 65 9d 4c    	xor    ebx,0x4c9d650c
 804ad6e:	29 da                	sub    edx,ebx
 804ad70:	89 d3                	mov    ebx,edx
 804ad72:	89 d6                	mov    esi,edx
 804ad74:	c1 ee 05             	shr    esi,0x5
 804ad77:	c1 e3 04             	shl    ebx,0x4
 804ad7a:	31 f3                	xor    ebx,esi
 804ad7c:	01 d3                	add    ebx,edx
 804ad7e:	81 f3 0c 85 77 17    	xor    ebx,0x1777850c
 804ad84:	29 d8                	sub    eax,ebx
 804ad86:	89 c3                	mov    ebx,eax
 804ad88:	89 c6                	mov    esi,eax
 804ad8a:	c1 ee 05             	shr    esi,0x5
 804ad8d:	c1 e3 04             	shl    ebx,0x4
 804ad90:	31 f3                	xor    ebx,esi
 804ad92:	01 c3                	add    ebx,eax
 804ad94:	81 f3 53 0b 40 79    	xor    ebx,0x79400b53
 804ad9a:	29 da                	sub    edx,ebx
 804ad9c:	89 d3                	mov    ebx,edx
 804ad9e:	89 d6                	mov    esi,edx
 804ada0:	c1 ee 05             	shr    esi,0x5
 804ada3:	c1 e3 04             	shl    ebx,0x4
 804ada6:	31 f3                	xor    ebx,esi
 804ada8:	01 d3                	add    ebx,edx
 804adaa:	81 f3 53 eb 65 ae    	xor    ebx,0xae65eb53
 804adb0:	29 d8                	sub    eax,ebx
 804adb2:	89 c3                	mov    ebx,eax
 804adb4:	89 c6                	mov    esi,eax
 804adb6:	c1 ee 05             	shr    esi,0x5
 804adb9:	c1 e3 04             	shl    ebx,0x4
 804adbc:	31 f3                	xor    ebx,esi
 804adbe:	01 c3                	add    ebx,eax
 804adc0:	81 f3 4b 5c 59 1a    	xor    ebx,0x1a595c4b
 804adc6:	29 da                	sub    edx,ebx
 804adc8:	89 d3                	mov    ebx,edx
 804adca:	89 d6                	mov    esi,edx
 804adcc:	c1 ee 05             	shr    esi,0x5
 804adcf:	c1 e3 04             	shl    ebx,0x4
 804add2:	31 f3                	xor    ebx,esi
 804add4:	01 d3                	add    ebx,edx
 804add6:	81 f3 7c 60 08 2e    	xor    ebx,0x2e08607c
 804addc:	29 d8                	sub    eax,ebx
 804adde:	89 c3                	mov    ebx,eax
 804ade0:	89 c6                	mov    esi,eax
 804ade2:	c1 ee 05             	shr    esi,0x5
 804ade5:	c1 e3 04             	shl    ebx,0x4
 804ade8:	31 f3                	xor    ebx,esi
 804adea:	01 c3                	add    ebx,eax
 804adec:	81 f3 c3 e6 d0 8f    	xor    ebx,0x8fd0e6c3
 804adf2:	29 da                	sub    edx,ebx
 804adf4:	89 d3                	mov    ebx,edx
 804adf6:	89 d6                	mov    esi,edx
 804adf8:	c1 ee 05             	shr    esi,0x5
 804adfb:	c1 e3 04             	shl    ebx,0x4
 804adfe:	31 f3                	xor    ebx,esi
 804ae00:	01 d3                	add    ebx,edx
 804ae02:	81 f3 c3 e6 d0 8f    	xor    ebx,0x8fd0e6c3
 804ae08:	29 d8                	sub    eax,ebx
 804ae0a:	89 c3                	mov    ebx,eax
 804ae0c:	89 c6                	mov    esi,eax
 804ae0e:	c1 ee 05             	shr    esi,0x5
 804ae11:	c1 e3 04             	shl    ebx,0x4
 804ae14:	31 f3                	xor    ebx,esi
 804ae16:	01 c3                	add    ebx,eax
 804ae18:	81 f3 28 7e bf d3    	xor    ebx,0xd3bf7e28
 804ae1e:	29 da                	sub    edx,ebx
 804ae20:	89 d3                	mov    ebx,edx
 804ae22:	89 d6                	mov    esi,edx
 804ae24:	c1 e3 04             	shl    ebx,0x4
 804ae27:	c1 ee 05             	shr    esi,0x5
 804ae2a:	31 f3                	xor    ebx,esi
 804ae2c:	01 d3                	add    ebx,edx
 804ae2e:	81 f3 d9 68 ea dd    	xor    ebx,0xddea68d9
 804ae34:	29 d8                	sub    eax,ebx
 804ae36:	89 c3                	mov    ebx,eax
 804ae38:	89 c6                	mov    esi,eax
 804ae3a:	c1 ee 05             	shr    esi,0x5
 804ae3d:	c1 e3 04             	shl    ebx,0x4
 804ae40:	31 f3                	xor    ebx,esi
 804ae42:	01 c3                	add    ebx,eax
 804ae44:	81 f3 6f 24 62 00    	xor    ebx,0x62246f
 804ae4a:	29 da                	sub    edx,ebx
 804ae4c:	89 d3                	mov    ebx,edx
 804ae4e:	89 d6                	mov    esi,edx
 804ae50:	c1 ee 05             	shr    esi,0x5
 804ae53:	c1 e3 04             	shl    ebx,0x4
 804ae56:	31 f3                	xor    ebx,esi
 804ae58:	01 d3                	add    ebx,edx
 804ae5a:	81 f3 6f 24 62 00    	xor    ebx,0x62246f
 804ae60:	29 d8                	sub    eax,ebx
 804ae62:	89 c3                	mov    ebx,eax
 804ae64:	89 c6                	mov    esi,eax
 804ae66:	c1 ee 05             	shr    esi,0x5
 804ae69:	c1 e3 04             	shl    ebx,0x4
 804ae6c:	31 f3                	xor    ebx,esi
 804ae6e:	01 c3                	add    ebx,eax
 804ae70:	81 f3 67 75 7b a1    	xor    ebx,0xa17b7567
 804ae76:	29 da                	sub    edx,ebx
 804ae78:	89 d3                	mov    ebx,edx
 804ae7a:	89 d6                	mov    esi,edx
 804ae7c:	c1 ee 05             	shr    esi,0x5
 804ae7f:	c1 e3 04             	shl    ebx,0x4
 804ae82:	31 f3                	xor    ebx,esi
 804ae84:	01 d3                	add    ebx,edx
 804ae86:	81 f3 b6 8a 50 97    	xor    ebx,0x97508ab6
 804ae8c:	29 d8                	sub    eax,ebx
 804ae8e:	89 c3                	mov    ebx,eax
 804ae90:	89 c6                	mov    esi,eax
 804ae92:	c1 ee 05             	shr    esi,0x5
 804ae95:	c1 e3 04             	shl    ebx,0x4
 804ae98:	31 f3                	xor    ebx,esi
 804ae9a:	01 c3                	add    ebx,eax
 804ae9c:	81 f3 df ff f2 16    	xor    ebx,0x16f2ffdf
 804aea2:	29 da                	sub    edx,ebx
 804aea4:	89 d3                	mov    ebx,edx
 804aea6:	89 d6                	mov    esi,edx
 804aea8:	c1 ee 05             	shr    esi,0x5
 804aeab:	c1 e3 04             	shl    ebx,0x4
 804aeae:	31 f3                	xor    ebx,esi
 804aeb0:	01 d3                	add    ebx,edx
 804aeb2:	81 f3 df ff f2 16    	xor    ebx,0x16f2ffdf
 804aeb8:	29 d8                	sub    eax,ebx
 804aeba:	89 c3                	mov    ebx,eax
 804aebc:	89 c6                	mov    esi,eax
 804aebe:	c1 ee 05             	shr    esi,0x5
 804aec1:	c1 e3 04             	shl    ebx,0x4
 804aec4:	31 f3                	xor    ebx,esi
 804aec6:	01 c3                	add    ebx,eax
 804aec8:	81 f3 44 97 e1 5a    	xor    ebx,0x5ae19744
 804aece:	29 da                	sub    edx,ebx
 804aed0:	89 d3                	mov    ebx,edx
 804aed2:	89 d6                	mov    esi,edx
 804aed4:	c1 ee 05             	shr    esi,0x5
 804aed7:	c1 e3 04             	shl    ebx,0x4
 804aeda:	31 f3                	xor    ebx,esi
 804aedc:	01 d3                	add    ebx,edx
 804aede:	81 f3 26 86 bb 78    	xor    ebx,0x78bb8626
 804aee4:	29 d8                	sub    eax,ebx
 804aee6:	89 c3                	mov    ebx,eax
 804aee8:	89 c6                	mov    esi,eax
 804aeea:	c1 ee 05             	shr    esi,0x5
 804aeed:	c1 e3 04             	shl    ebx,0x4
 804aef0:	31 f3                	xor    ebx,esi
 804aef2:	01 c3                	add    ebx,eax
 804aef4:	81 f3 8b 3d 84 87    	xor    ebx,0x87843d8b
 804aefa:	29 da                	sub    edx,ebx
 804aefc:	89 d3                	mov    ebx,edx
 804aefe:	89 d6                	mov    esi,edx
 804af00:	c1 ee 05             	shr    esi,0x5
 804af03:	c1 e3 04             	shl    ebx,0x4
 804af06:	31 f3                	xor    ebx,esi
 804af08:	01 d3                	add    ebx,edx
 804af0a:	81 f3 3c 08 d5 c6    	xor    ebx,0xc6d5083c
 804af10:	29 d8                	sub    eax,ebx
 804af12:	89 c3                	mov    ebx,eax
 804af14:	89 c6                	mov    esi,eax
 804af16:	c1 ee 05             	shr    esi,0x5
 804af19:	c1 e3 04             	shl    ebx,0x4
 804af1c:	31 f3                	xor    ebx,esi
 804af1e:	01 c3                	add    ebx,eax
 804af20:	81 f3 83 8e 9d 28    	xor    ebx,0x289d8e83
 804af26:	29 da                	sub    edx,ebx
 804af28:	89 d3                	mov    ebx,edx
 804af2a:	89 d6                	mov    esi,edx
 804af2c:	c1 ee 05             	shr    esi,0x5
 804af2f:	c1 e3 04             	shl    ebx,0x4
 804af32:	31 f3                	xor    ebx,esi
 804af34:	01 d3                	add    ebx,edx
 804af36:	81 f3 d2 c3 4c e9    	xor    ebx,0xe94cc3d2
 804af3c:	29 d8                	sub    eax,ebx
 804af3e:	89 c3                	mov    ebx,eax
 804af40:	89 c6                	mov    esi,eax
 804af42:	c1 ee 05             	shr    esi,0x5
 804af45:	c1 e3 04             	shl    ebx,0x4
 804af48:	31 f3                	xor    ebx,esi
 804af4a:	01 c3                	add    ebx,eax
 804af4c:	81 f3 fb 18 15 9e    	xor    ebx,0x9e1518fb
 804af52:	29 da                	sub    edx,ebx
 804af54:	89 d3                	mov    ebx,edx
 804af56:	89 d6                	mov    esi,edx
 804af58:	c1 ee 05             	shr    esi,0x5
 804af5b:	c1 e3 04             	shl    ebx,0x4
 804af5e:	31 f3                	xor    ebx,esi
 804af60:	01 d3                	add    ebx,edx
 804af62:	81 f3 19 2a 3b 80    	xor    ebx,0x803b2a19
 804af68:	29 d8                	sub    eax,ebx
 804af6a:	89 c3                	mov    ebx,eax
 804af6c:	89 c6                	mov    esi,eax
 804af6e:	c1 ee 05             	shr    esi,0x5
 804af71:	c1 e3 04             	shl    ebx,0x4
 804af74:	31 f3                	xor    ebx,esi
 804af76:	01 c3                	add    ebx,eax
 804af78:	81 f3 60 b0 03 e2    	xor    ebx,0xe203b060
 804af7e:	29 da                	sub    edx,ebx
 804af80:	89 d3                	mov    ebx,edx
 804af82:	89 d6                	mov    esi,edx
 804af84:	c1 e3 04             	shl    ebx,0x4
 804af87:	c1 ee 05             	shr    esi,0x5
 804af8a:	31 f3                	xor    ebx,esi
 804af8c:	01 d3                	add    ebx,edx
 804af8e:	81 f3 42 9f dd ff    	xor    ebx,0xffdd9f42
 804af94:	29 d8                	sub    eax,ebx
 804af96:	89 c3                	mov    ebx,eax
 804af98:	89 c6                	mov    esi,eax
 804af9a:	c1 ee 05             	shr    esi,0x5
 804af9d:	c1 e3 04             	shl    ebx,0x4
 804afa0:	31 f3                	xor    ebx,esi
 804afa2:	01 c3                	add    ebx,eax
 804afa4:	81 f3 a7 56 a6 0e    	xor    ebx,0xea656a7
 804afaa:	29 da                	sub    edx,ebx
 804afac:	89 d3                	mov    ebx,edx
 804afae:	89 d6                	mov    esi,edx
 804afb0:	c1 ee 05             	shr    esi,0x5
 804afb3:	c1 e3 04             	shl    ebx,0x4
 804afb6:	31 f3                	xor    ebx,esi
 804afb8:	01 d3                	add    ebx,edx
 804afba:	81 f3 89 25 a6 61    	xor    ebx,0x61a62589
 804afc0:	29 d8                	sub    eax,ebx
 804afc2:	89 c3                	mov    ebx,eax
 804afc4:	89 c6                	mov    esi,eax
 804afc6:	c1 ee 05             	shr    esi,0x5
 804afc9:	c1 e3 04             	shl    ebx,0x4
 804afcc:	31 f3                	xor    ebx,esi
 804afce:	01 c3                	add    ebx,eax
 804afd0:	81 f3 9f a7 bf af    	xor    ebx,0xafbfa79f
 804afd6:	29 da                	sub    edx,ebx
 804afd8:	89 d3                	mov    ebx,edx
 804afda:	89 d6                	mov    esi,edx
 804afdc:	c1 ee 05             	shr    esi,0x5
 804afdf:	c1 e3 04             	shl    ebx,0x4
 804afe2:	31 f3                	xor    ebx,esi
 804afe4:	01 d3                	add    ebx,edx
 804afe6:	81 f3 9f a7 bf af    	xor    ebx,0xafbfa79f
 804afec:	29 d8                	sub    eax,ebx
 804afee:	89 c3                	mov    ebx,eax
 804aff0:	89 c6                	mov    esi,eax
 804aff2:	c1 ee 05             	shr    esi,0x5
 804aff5:	c1 e3 04             	shl    ebx,0x4
 804aff8:	31 f3                	xor    ebx,esi
 804affa:	01 c3                	add    ebx,eax
 804affc:	81 f3 17 32 37 25    	xor    ebx,0x25373217
 804b002:	29 da                	sub    edx,ebx
 804b004:	89 d3                	mov    ebx,edx
 804b006:	89 d6                	mov    esi,edx
 804b008:	c1 ee 05             	shr    esi,0x5
 804b00b:	c1 e3 04             	shl    ebx,0x4
 804b00e:	31 f3                	xor    ebx,esi
 804b010:	01 d3                	add    ebx,edx
 804b012:	81 f3 35 63 37 d2    	xor    ebx,0xd2376335
 804b018:	29 d8                	sub    eax,ebx
 804b01a:	89 c3                	mov    ebx,eax
 804b01c:	89 c6                	mov    esi,eax
 804b01e:	c1 ee 05             	shr    esi,0x5
 804b021:	c1 e3 04             	shl    ebx,0x4
 804b024:	31 f3                	xor    ebx,esi
 804b026:	01 c3                	add    ebx,eax
 804b028:	81 f3 7c c9 25 69    	xor    ebx,0x6925c97c
 804b02e:	29 da                	sub    edx,ebx
 804b030:	89 d3                	mov    ebx,edx
 804b032:	89 d6                	mov    esi,edx
 804b034:	c1 ee 05             	shr    esi,0x5
 804b037:	c1 e3 04             	shl    ebx,0x4
 804b03a:	31 f3                	xor    ebx,esi
 804b03c:	01 d3                	add    ebx,edx
 804b03e:	81 f3 7c c9 25 69    	xor    ebx,0x6925c97c
 804b044:	29 d8                	sub    eax,ebx
 804b046:	89 c3                	mov    ebx,eax
 804b048:	89 c6                	mov    esi,eax
 804b04a:	c1 ee 05             	shr    esi,0x5
 804b04d:	c1 e3 04             	shl    ebx,0x4
 804b050:	31 f3                	xor    ebx,esi
 804b052:	01 c3                	add    ebx,eax
 804b054:	81 f3 c3 6f c8 95    	xor    ebx,0x95c86fc3
 804b05a:	29 da                	sub    edx,ebx
 804b05c:	89 d3                	mov    ebx,edx
 804b05e:	89 d6                	mov    esi,edx
 804b060:	c1 ee 05             	shr    esi,0x5
 804b063:	c1 e3 04             	shl    ebx,0x4
 804b066:	31 f3                	xor    ebx,esi
 804b068:	01 d3                	add    ebx,edx
 804b06a:	81 f3 c3 4f ee ca    	xor    ebx,0xcaee4fc3
 804b070:	29 d8                	sub    eax,ebx
 804b072:	89 c3                	mov    ebx,eax
 804b074:	89 c6                	mov    esi,eax
 804b076:	c1 ee 05             	shr    esi,0x5
 804b079:	c1 e3 04             	shl    ebx,0x4
 804b07c:	31 f3                	xor    ebx,esi
 804b07e:	01 c3                	add    ebx,eax
 804b080:	81 f3 bb c0 e1 36    	xor    ebx,0x36e1c0bb
 804b086:	29 da                	sub    edx,ebx
 804b088:	89 d3                	mov    ebx,edx
 804b08a:	89 d6                	mov    esi,edx
 804b08c:	c1 ee 05             	shr    esi,0x5
 804b08f:	c1 e3 04             	shl    ebx,0x4
 804b092:	31 f3                	xor    ebx,esi
 804b094:	01 d3                	add    ebx,edx
 804b096:	81 f3 ec c4 90 4a    	xor    ebx,0x4a90c4ec
 804b09c:	29 d8                	sub    eax,ebx
 804b09e:	89 c3                	mov    ebx,eax
 804b0a0:	89 c6                	mov    esi,eax
 804b0a2:	c1 ee 05             	shr    esi,0x5
 804b0a5:	c1 e3 04             	shl    ebx,0x4
 804b0a8:	31 f3                	xor    ebx,esi
 804b0aa:	01 c3                	add    ebx,eax
 804b0ac:	81 f3 33 4b 59 ac    	xor    ebx,0xac594b33
 804b0b2:	29 da                	sub    edx,ebx
 804b0b4:	89 d3                	mov    ebx,edx
 804b0b6:	89 d6                	mov    esi,edx
 804b0b8:	c1 ee 05             	shr    esi,0x5
 804b0bb:	c1 e3 04             	shl    ebx,0x4
 804b0be:	31 f3                	xor    ebx,esi
 804b0c0:	01 d3                	add    ebx,edx
 804b0c2:	81 f3 02 47 aa 98    	xor    ebx,0x98aa4702
 804b0c8:	29 d8                	sub    eax,ebx
 804b0ca:	89 c3                	mov    ebx,eax
 804b0cc:	89 c6                	mov    esi,eax
 804b0ce:	c1 ee 05             	shr    esi,0x5
 804b0d1:	c1 e3 04             	shl    ebx,0x4
 804b0d4:	31 f3                	xor    ebx,esi
 804b0d6:	01 c3                	add    ebx,eax
 804b0d8:	81 f3 98 e2 47 f0    	xor    ebx,0xf047e298
 804b0de:	29 da                	sub    edx,ebx
 804b0e0:	89 d3                	mov    ebx,edx
 804b0e2:	89 d6                	mov    esi,edx
 804b0e4:	c1 e3 04             	shl    ebx,0x4
 804b0e7:	c1 ee 05             	shr    esi,0x5
 804b0ea:	31 f3                	xor    ebx,esi
 804b0ec:	01 d3                	add    ebx,edx
 804b0ee:	81 f3 98 02 22 bb    	xor    ebx,0xbb220298
 804b0f4:	29 d8                	sub    eax,ebx
 804b0f6:	89 c3                	mov    ebx,eax
 804b0f8:	89 c6                	mov    esi,eax
 804b0fa:	c1 ee 05             	shr    esi,0x5
 804b0fd:	c1 e3 04             	shl    ebx,0x4
 804b100:	31 f3                	xor    ebx,esi
 804b102:	01 c3                	add    ebx,eax
 804b104:	81 f3 df 88 ea 1c    	xor    ebx,0x1cea88df
 804b10a:	29 da                	sub    edx,ebx
 804b10c:	89 d3                	mov    ebx,edx
 804b10e:	89 d6                	mov    esi,edx
 804b110:	c1 ee 05             	shr    esi,0x5
 804b113:	c1 e3 04             	shl    ebx,0x4
 804b116:	31 f3                	xor    ebx,esi
 804b118:	01 d3                	add    ebx,edx
 804b11a:	81 f3 df 68 10 52    	xor    ebx,0x521068df
 804b120:	29 d8                	sub    eax,ebx
 804b122:	89 c3                	mov    ebx,eax
 804b124:	89 c6                	mov    esi,eax
 804b126:	c1 ee 05             	shr    esi,0x5
 804b129:	c1 e3 04             	shl    ebx,0x4
 804b12c:	31 f3                	xor    ebx,esi
 804b12e:	01 c3                	add    ebx,eax
 804b130:	81 f3 d7 d9 03 be    	xor    ebx,0xbe03d9d7
 804b136:	29 da                	sub    edx,ebx
 804b138:	89 d3                	mov    ebx,edx
 804b13a:	89 d6                	mov    esi,edx
 804b13c:	c1 ee 05             	shr    esi,0x5
 804b13f:	c1 e3 04             	shl    ebx,0x4
 804b142:	31 f3                	xor    ebx,esi
 804b144:	01 d3                	add    ebx,edx
 804b146:	81 f3 26 ef d8 b3    	xor    ebx,0xb3d8ef26
 804b14c:	29 d8                	sub    eax,ebx
 804b14e:	89 c3                	mov    ebx,eax
 804b150:	89 c6                	mov    esi,eax
 804b152:	c1 ee 05             	shr    esi,0x5
 804b155:	c1 e3 04             	shl    ebx,0x4
 804b158:	31 f3                	xor    ebx,esi
 804b15a:	01 c3                	add    ebx,eax
 804b15c:	81 f3 4f 64 7b 33    	xor    ebx,0x337b644f
 804b162:	29 da                	sub    edx,ebx
 804b164:	89 d3                	mov    ebx,edx
 804b166:	89 d6                	mov    esi,edx
 804b168:	c1 ee 05             	shr    esi,0x5
 804b16b:	c1 e3 04             	shl    ebx,0x4
 804b16e:	31 f3                	xor    ebx,esi
 804b170:	01 d3                	add    ebx,edx
 804b172:	81 f3 4f 64 7b 33    	xor    ebx,0x337b644f
 804b178:	29 d8                	sub    eax,ebx
 804b17a:	89 c3                	mov    ebx,eax
 804b17c:	89 c6                	mov    esi,eax
 804b17e:	c1 ee 05             	shr    esi,0x5
 804b181:	c1 e3 04             	shl    ebx,0x4
 804b184:	31 f3                	xor    ebx,esi
 804b186:	01 c3                	add    ebx,eax
 804b188:	81 f3 b4 fb 69 77    	xor    ebx,0x7769fbb4
 804b18e:	29 da                	sub    edx,ebx
 804b190:	89 d3                	mov    ebx,edx
 804b192:	89 d6                	mov    esi,edx
 804b194:	c1 ee 05             	shr    esi,0x5
 804b197:	c1 e3 04             	shl    ebx,0x4
 804b19a:	31 f3                	xor    ebx,esi
 804b19c:	01 d3                	add    ebx,edx
 804b19e:	81 f3 65 e6 94 81    	xor    ebx,0x8194e665
 804b1a4:	29 d8                	sub    eax,ebx
 804b1a6:	89 c3                	mov    ebx,eax
 804b1a8:	89 c6                	mov    esi,eax
 804b1aa:	c1 ee 05             	shr    esi,0x5
 804b1ad:	c1 e3 04             	shl    ebx,0x4
 804b1b0:	31 f3                	xor    ebx,esi
 804b1b2:	01 c3                	add    ebx,eax
 804b1b4:	81 f3 fb a1 0c a4    	xor    ebx,0xa40ca1fb
 804b1ba:	29 da                	sub    edx,ebx
 804b1bc:	89 d3                	mov    ebx,edx
 804b1be:	89 d6                	mov    esi,edx
 804b1c0:	c1 ee 05             	shr    esi,0x5
 804b1c3:	c1 e3 04             	shl    ebx,0x4
 804b1c6:	31 f3                	xor    ebx,esi
 804b1c8:	01 d3                	add    ebx,edx
 804b1ca:	81 f3 fb a1 0c a4    	xor    ebx,0xa40ca1fb
 804b1d0:	29 d8                	sub    eax,ebx
 804b1d2:	89 c3                	mov    ebx,eax
 804b1d4:	89 c6                	mov    esi,eax
 804b1d6:	c1 ee 05             	shr    esi,0x5
 804b1d9:	c1 e3 04             	shl    ebx,0x4
 804b1dc:	31 f3                	xor    ebx,esi
 804b1de:	01 c3                	add    ebx,eax
 804b1e0:	81 f3 f3 f2 25 45    	xor    ebx,0x4525f2f3
 804b1e6:	29 da                	sub    edx,ebx
 804b1e8:	89 d3                	mov    ebx,edx
 804b1ea:	89 d6                	mov    esi,edx
 804b1ec:	c1 ee 05             	shr    esi,0x5
 804b1ef:	c1 e3 04             	shl    ebx,0x4
 804b1f2:	31 f3                	xor    ebx,esi
 804b1f4:	01 d3                	add    ebx,edx
 804b1f6:	81 f3 42 08 fb 3a    	xor    ebx,0x3afb0842
 804b1fc:	29 d8                	sub    eax,ebx
 804b1fe:	89 c3                	mov    ebx,eax
 804b200:	89 c6                	mov    esi,eax
 804b202:	c1 ee 05             	shr    esi,0x5
 804b205:	c1 e3 04             	shl    ebx,0x4
 804b208:	31 f3                	xor    ebx,esi
 804b20a:	01 c3                	add    ebx,eax
 804b20c:	81 f3 6b 7d 9d ba    	xor    ebx,0xba9d7d6b
 804b212:	29 da                	sub    edx,ebx
 804b214:	89 d3                	mov    ebx,edx
 804b216:	89 d6                	mov    esi,edx
 804b218:	c1 ee 05             	shr    esi,0x5
 804b21b:	c1 e3 04             	shl    ebx,0x4
 804b21e:	31 f3                	xor    ebx,esi
 804b220:	01 d3                	add    ebx,edx
 804b222:	81 f3 89 8e c3 9c    	xor    ebx,0x9cc38e89
 804b228:	29 d8                	sub    eax,ebx
 804b22a:	89 c3                	mov    ebx,eax
 804b22c:	89 c6                	mov    esi,eax
 804b22e:	c1 ee 05             	shr    esi,0x5
 804b231:	c1 e3 04             	shl    ebx,0x4
 804b234:	31 f3                	xor    ebx,esi
 804b236:	01 c3                	add    ebx,eax
 804b238:	81 f3 d0 14 8c fe    	xor    ebx,0xfe8c14d0
 804b23e:	29 da                	sub    edx,ebx
 804b240:	89 d3                	mov    ebx,edx
 804b242:	89 d6                	mov    esi,edx
 804b244:	c1 e3 04             	shl    ebx,0x4
 804b247:	c1 ee 05             	shr    esi,0x5
 804b24a:	31 f3                	xor    ebx,esi
 804b24c:	01 d3                	add    ebx,edx
 804b24e:	81 f3 b2 03 66 1c    	xor    ebx,0x1c6603b2
 804b254:	29 d8                	sub    eax,ebx
 804b256:	89 c3                	mov    ebx,eax
 804b258:	89 c6                	mov    esi,eax
 804b25a:	c1 ee 05             	shr    esi,0x5
 804b25d:	c1 e3 04             	shl    ebx,0x4
 804b260:	31 f3                	xor    ebx,esi
 804b262:	01 c3                	add    ebx,eax
 804b264:	81 f3 17 bb 2e 2b    	xor    ebx,0x2b2ebb17
 804b26a:	29 da                	sub    edx,ebx
 804b26c:	89 d3                	mov    ebx,edx
 804b26e:	89 d6                	mov    esi,edx
 804b270:	c1 ee 05             	shr    esi,0x5
 804b273:	c1 e3 04             	shl    ebx,0x4
 804b276:	31 f3                	xor    ebx,esi
 804b278:	01 d3                	add    ebx,edx
 804b27a:	81 f3 c8 85 7f 6a    	xor    ebx,0x6a7f85c8
 804b280:	29 d8                	sub    eax,ebx
 804b282:	89 c3                	mov    ebx,eax
 804b284:	89 c6                	mov    esi,eax
 804b286:	c1 ee 05             	shr    esi,0x5
 804b289:	c1 e3 04             	shl    ebx,0x4
 804b28c:	31 f3                	xor    ebx,esi
 804b28e:	01 c3                	add    ebx,eax
 804b290:	81 f3 0f 0c 48 cc    	xor    ebx,0xcc480c0f
 804b296:	29 da                	sub    edx,ebx
 804b298:	89 d3                	mov    ebx,edx
 804b29a:	89 d6                	mov    esi,edx
 804b29c:	c1 ee 05             	shr    esi,0x5
 804b29f:	c1 e3 04             	shl    ebx,0x4
 804b2a2:	31 f3                	xor    ebx,esi
 804b2a4:	01 d3                	add    ebx,edx
 804b2a6:	81 f3 5e 41 f7 8c    	xor    ebx,0x8cf7415e
 804b2ac:	29 d8                	sub    eax,ebx
 804b2ae:	89 c3                	mov    ebx,eax
 804b2b0:	89 c6                	mov    esi,eax
 804b2b2:	c1 ee 05             	shr    esi,0x5
 804b2b5:	c1 e3 04             	shl    ebx,0x4
 804b2b8:	31 f3                	xor    ebx,esi
 804b2ba:	01 c3                	add    ebx,eax
 804b2bc:	81 f3 87 96 bf 41    	xor    ebx,0x41bf9687
 804b2c2:	29 da                	sub    edx,ebx
 804b2c4:	89 d3                	mov    ebx,edx
 804b2c6:	89 d6                	mov    esi,edx
 804b2c8:	c1 ee 05             	shr    esi,0x5
 804b2cb:	c1 e3 04             	shl    ebx,0x4
 804b2ce:	31 f3                	xor    ebx,esi
 804b2d0:	01 d3                	add    ebx,edx
 804b2d2:	81 f3 a5 c7 bf ee    	xor    ebx,0xeebfc7a5
 804b2d8:	29 d8                	sub    eax,ebx
 804b2da:	89 c3                	mov    ebx,eax
 804b2dc:	89 c6                	mov    esi,eax
 804b2de:	c1 ee 05             	shr    esi,0x5
 804b2e1:	c1 e3 04             	shl    ebx,0x4
 804b2e4:	31 f3                	xor    ebx,esi
 804b2e6:	01 c3                	add    ebx,eax
 804b2e8:	81 f3 ec 2d ae 85    	xor    ebx,0x85ae2dec
 804b2ee:	29 da                	sub    edx,ebx
 804b2f0:	89 d3                	mov    ebx,edx
 804b2f2:	89 d6                	mov    esi,edx
 804b2f4:	c1 ee 05             	shr    esi,0x5
 804b2f7:	c1 e3 04             	shl    ebx,0x4
 804b2fa:	31 f3                	xor    ebx,esi
 804b2fc:	01 d3                	add    ebx,edx
 804b2fe:	81 f3 ec 2d ae 85    	xor    ebx,0x85ae2dec
 804b304:	29 d8                	sub    eax,ebx
 804b306:	89 c3                	mov    ebx,eax
 804b308:	89 c6                	mov    esi,eax
 804b30a:	c1 ee 05             	shr    esi,0x5
 804b30d:	c1 e3 04             	shl    ebx,0x4
 804b310:	31 f3                	xor    ebx,esi
 804b312:	01 c3                	add    ebx,eax
 804b314:	81 f3 33 d4 50 b2    	xor    ebx,0xb250d433
 804b31a:	29 da                	sub    edx,ebx
 804b31c:	89 d3                	mov    ebx,edx
 804b31e:	89 d6                	mov    esi,edx
 804b320:	c1 ee 05             	shr    esi,0x5
 804b323:	c1 e3 04             	shl    ebx,0x4
 804b326:	31 f3                	xor    ebx,esi
 804b328:	01 d3                	add    ebx,edx
 804b32a:	81 f3 15 a3 50 05    	xor    ebx,0x550a315
 804b330:	29 d8                	sub    eax,ebx
 804b332:	89 c3                	mov    ebx,eax
 804b334:	89 c6                	mov    esi,eax
 804b336:	c1 ee 05             	shr    esi,0x5
 804b339:	c1 e3 04             	shl    ebx,0x4
 804b33c:	31 f3                	xor    ebx,esi
 804b33e:	01 c3                	add    ebx,eax
 804b340:	81 f3 2b 25 6a 53    	xor    ebx,0x536a252b
 804b346:	29 da                	sub    edx,ebx
 804b348:	89 d3                	mov    ebx,edx
 804b34a:	89 d6                	mov    esi,edx
 804b34c:	c1 ee 05             	shr    esi,0x5
 804b34f:	c1 e3 04             	shl    ebx,0x4
 804b352:	31 f3                	xor    ebx,esi
 804b354:	01 d3                	add    ebx,edx
 804b356:	81 f3 2b 25 6a 53    	xor    ebx,0x536a252b
 804b35c:	29 d8                	sub    eax,ebx
 804b35e:	89 c3                	mov    ebx,eax
 804b360:	89 c6                	mov    esi,eax
 804b362:	c1 ee 05             	shr    esi,0x5
 804b365:	c1 e3 04             	shl    ebx,0x4
 804b368:	31 f3                	xor    ebx,esi
 804b36a:	01 c3                	add    ebx,eax
 804b36c:	81 f3 a3 af e1 c8    	xor    ebx,0xc8e1afa3
 804b372:	29 da                	sub    edx,ebx
 804b374:	89 d3                	mov    ebx,edx
 804b376:	89 d6                	mov    esi,edx
 804b378:	c1 ee 05             	shr    esi,0x5
 804b37b:	c1 e3 04             	shl    ebx,0x4
 804b37e:	31 f3                	xor    ebx,esi
 804b380:	01 d3                	add    ebx,edx
 804b382:	81 f3 c1 e0 e1 75    	xor    ebx,0x75e1e0c1
 804b388:	29 d8                	sub    eax,ebx
 804b38a:	89 c3                	mov    ebx,eax
 804b38c:	89 c6                	mov    esi,eax
 804b38e:	c1 ee 05             	shr    esi,0x5
 804b391:	c1 e3 04             	shl    ebx,0x4
 804b394:	31 f3                	xor    ebx,esi
 804b396:	01 c3                	add    ebx,eax
 804b398:	81 f3 08 47 d0 0c    	xor    ebx,0xcd04708
 804b39e:	29 da                	sub    edx,ebx
 804b3a0:	89 d3                	mov    ebx,edx
 804b3a2:	89 d6                	mov    esi,edx
 804b3a4:	c1 e3 04             	shl    ebx,0x4
 804b3a7:	c1 ee 05             	shr    esi,0x5
 804b3aa:	31 f3                	xor    ebx,esi
 804b3ac:	01 d3                	add    ebx,edx
 804b3ae:	81 f3 08 67 aa d7    	xor    ebx,0xd7aa6708
 804b3b4:	29 d8                	sub    eax,ebx
 804b3b6:	89 c3                	mov    ebx,eax
 804b3b8:	89 c6                	mov    esi,eax
 804b3ba:	c1 ee 05             	shr    esi,0x5
 804b3bd:	c1 e3 04             	shl    ebx,0x4
 804b3c0:	31 f3                	xor    ebx,esi
 804b3c2:	01 c3                	add    ebx,eax
 804b3c4:	81 f3 4f ed 72 39    	xor    ebx,0x3972ed4f
 804b3ca:	29 da                	sub    edx,ebx
 804b3cc:	89 d3                	mov    ebx,edx
 804b3ce:	89 d6                	mov    esi,edx
 804b3d0:	c1 ee 05             	shr    esi,0x5
 804b3d3:	c1 e3 04             	shl    ebx,0x4
 804b3d6:	31 f3                	xor    ebx,esi
 804b3d8:	01 d3                	add    ebx,edx
 804b3da:	81 f3 4f cd 98 6e    	xor    ebx,0x6e98cd4f
 804b3e0:	29 d8                	sub    eax,ebx
 804b3e2:	89 c3                	mov    ebx,eax
 804b3e4:	89 c6                	mov    esi,eax
 804b3e6:	c1 ee 05             	shr    esi,0x5
 804b3e9:	c1 e3 04             	shl    ebx,0x4
 804b3ec:	31 f3                	xor    ebx,esi
 804b3ee:	01 c3                	add    ebx,eax
 804b3f0:	81 f3 47 3e 8c da    	xor    ebx,0xda8c3e47
 804b3f6:	29 da                	sub    edx,ebx
 804b3f8:	89 d3                	mov    ebx,edx
 804b3fa:	89 d6                	mov    esi,edx
 804b3fc:	c1 ee 05             	shr    esi,0x5
 804b3ff:	c1 e3 04             	shl    ebx,0x4
 804b402:	31 f3                	xor    ebx,esi
 804b404:	01 d3                	add    ebx,edx
 804b406:	81 f3 78 42 3b ee    	xor    ebx,0xee3b4278
 804b40c:	29 d8                	sub    eax,ebx
 804b40e:	89 c3                	mov    ebx,eax
 804b410:	89 c6                	mov    esi,eax
 804b412:	c1 ee 05             	shr    esi,0x5
 804b415:	c1 e3 04             	shl    ebx,0x4
 804b418:	31 f3                	xor    ebx,esi
 804b41a:	01 c3                	add    ebx,eax
 804b41c:	81 f3 bf c8 03 50    	xor    ebx,0x5003c8bf
 804b422:	29 da                	sub    edx,ebx
 804b424:	89 d3                	mov    ebx,edx
 804b426:	89 d6                	mov    esi,edx
 804b428:	c1 ee 05             	shr    esi,0x5
 804b42b:	c1 e3 04             	shl    ebx,0x4
 804b42e:	31 f3                	xor    ebx,esi
 804b430:	01 d3                	add    ebx,edx
 804b432:	81 f3 8e c4 54 3c    	xor    ebx,0x3c54c48e
 804b438:	29 d8                	sub    eax,ebx
 804b43a:	89 c3                	mov    ebx,eax
 804b43c:	89 c6                	mov    esi,eax
 804b43e:	c1 ee 05             	shr    esi,0x5
 804b441:	c1 e3 04             	shl    ebx,0x4
 804b444:	31 f3                	xor    ebx,esi
 804b446:	01 c3                	add    ebx,eax
 804b448:	81 f3 24 60 f2 93    	xor    ebx,0x93f26024
 804b44e:	29 da                	sub    edx,ebx
 804b450:	89 d3                	mov    ebx,edx
 804b452:	89 d6                	mov    esi,edx
 804b454:	c1 ee 05             	shr    esi,0x5
 804b457:	c1 e3 04             	shl    ebx,0x4
 804b45a:	31 f3                	xor    ebx,esi
 804b45c:	01 d3                	add    ebx,edx
 804b45e:	81 f3 24 80 cc 5e    	xor    ebx,0x5ecc8024
 804b464:	29 d8                	sub    eax,ebx
 804b466:	89 c3                	mov    ebx,eax
 804b468:	89 c6                	mov    esi,eax
 804b46a:	c1 ee 05             	shr    esi,0x5
 804b46d:	c1 e3 04             	shl    ebx,0x4
 804b470:	31 f3                	xor    ebx,esi
 804b472:	01 c3                	add    ebx,eax
 804b474:	81 f3 6b 06 95 c0    	xor    ebx,0xc095066b
 804b47a:	29 da                	sub    edx,ebx
 804b47c:	89 d3                	mov    ebx,edx
 804b47e:	89 d6                	mov    esi,edx
 804b480:	c1 ee 05             	shr    esi,0x5
 804b483:	c1 e3 04             	shl    ebx,0x4
 804b486:	31 f3                	xor    ebx,esi
 804b488:	01 d3                	add    ebx,edx
 804b48a:	81 f3 6b 06 95 c0    	xor    ebx,0xc095066b
 804b490:	29 d8                	sub    eax,ebx
 804b492:	89 c3                	mov    ebx,eax
 804b494:	89 c6                	mov    esi,eax
 804b496:	c1 ee 05             	shr    esi,0x5
 804b499:	c1 e3 04             	shl    ebx,0x4
 804b49c:	31 f3                	xor    ebx,esi
 804b49e:	01 c3                	add    ebx,eax
 804b4a0:	81 f3 63 57 ae 61    	xor    ebx,0x61ae5763
 804b4a6:	29 da                	sub    edx,ebx
 804b4a8:	89 d3                	mov    ebx,edx
 804b4aa:	89 d6                	mov    esi,edx
 804b4ac:	c1 ee 05             	shr    esi,0x5
 804b4af:	c1 e3 04             	shl    ebx,0x4
 804b4b2:	31 f3                	xor    ebx,esi
 804b4b4:	01 d3                	add    ebx,edx
 804b4b6:	81 f3 b2 6c 83 57    	xor    ebx,0x57836cb2
 804b4bc:	29 d8                	sub    eax,ebx
 804b4be:	89 c3                	mov    ebx,eax
 804b4c0:	89 c6                	mov    esi,eax
 804b4c2:	c1 ee 05             	shr    esi,0x5
 804b4c5:	c1 e3 04             	shl    ebx,0x4
 804b4c8:	31 f3                	xor    ebx,esi
 804b4ca:	01 c3                	add    ebx,eax
 804b4cc:	81 f3 db e1 25 d7    	xor    ebx,0xd725e1db
 804b4d2:	29 da                	sub    edx,ebx
 804b4d4:	89 d3                	mov    ebx,edx
 804b4d6:	89 d6                	mov    esi,edx
 804b4d8:	c1 ee 05             	shr    esi,0x5
 804b4db:	c1 e3 04             	shl    ebx,0x4
 804b4de:	31 f3                	xor    ebx,esi
 804b4e0:	01 d3                	add    ebx,edx
 804b4e2:	81 f3 db e1 25 d7    	xor    ebx,0xd725e1db
 804b4e8:	29 d8                	sub    eax,ebx
 804b4ea:	89 c3                	mov    ebx,eax
 804b4ec:	89 c6                	mov    esi,eax
 804b4ee:	c1 ee 05             	shr    esi,0x5
 804b4f1:	c1 e3 04             	shl    ebx,0x4
 804b4f4:	31 f3                	xor    ebx,esi
 804b4f6:	01 c3                	add    ebx,eax
 804b4f8:	81 f3 40 79 14 1b    	xor    ebx,0x1b147940
 804b4fe:	29 da                	sub    edx,ebx
 804b500:	89 d3                	mov    ebx,edx
 804b502:	89 d6                	mov    esi,edx
 804b504:	c1 e3 04             	shl    ebx,0x4
 804b507:	c1 ee 05             	shr    esi,0x5
 804b50a:	31 f3                	xor    ebx,esi
 804b50c:	01 d3                	add    ebx,edx
 804b50e:	81 f3 f1 63 3f 25    	xor    ebx,0x253f63f1
 804b514:	29 d8                	sub    eax,ebx
 804b516:	89 c3                	mov    ebx,eax
 804b518:	89 c6                	mov    esi,eax
 804b51a:	c1 ee 05             	shr    esi,0x5
 804b51d:	c1 e3 04             	shl    ebx,0x4
 804b520:	31 f3                	xor    ebx,esi
 804b522:	01 c3                	add    ebx,eax
 804b524:	81 f3 87 1f b7 47    	xor    ebx,0x47b71f87
 804b52a:	29 da                	sub    edx,ebx
 804b52c:	89 d3                	mov    ebx,edx
 804b52e:	89 d6                	mov    esi,edx
 804b530:	c1 ee 05             	shr    esi,0x5
 804b533:	c1 e3 04             	shl    ebx,0x4
 804b536:	31 f3                	xor    ebx,esi
 804b538:	01 d3                	add    ebx,edx
 804b53a:	81 f3 38 ea 07 87    	xor    ebx,0x8707ea38
 804b540:	29 d8                	sub    eax,ebx
 804b542:	89 c3                	mov    ebx,eax
 804b544:	89 c6                	mov    esi,eax
 804b546:	c1 ee 05             	shr    esi,0x5
 804b549:	c1 e3 04             	shl    ebx,0x4
 804b54c:	31 f3                	xor    ebx,esi
 804b54e:	01 c3                	add    ebx,eax
 804b550:	81 f3 7f 70 d0 e8    	xor    ebx,0xe8d0707f
 804b556:	29 da                	sub    edx,ebx
 804b558:	89 d3                	mov    ebx,edx
 804b55a:	89 d6                	mov    esi,edx
 804b55c:	c1 ee 05             	shr    esi,0x5
 804b55f:	c1 e3 04             	shl    ebx,0x4
 804b562:	31 f3                	xor    ebx,esi
 804b564:	01 d3                	add    ebx,edx
 804b566:	81 f3 ce a5 7f a9    	xor    ebx,0xa97fa5ce
 804b56c:	29 d8                	sub    eax,ebx
 804b56e:	89 c3                	mov    ebx,eax
 804b570:	89 c6                	mov    esi,eax
 804b572:	c1 ee 05             	shr    esi,0x5
 804b575:	c1 e3 04             	shl    ebx,0x4
 804b578:	31 f3                	xor    ebx,esi
 804b57a:	01 c3                	add    ebx,eax
 804b57c:	81 f3 f7 fa 47 5e    	xor    ebx,0x5e47faf7
 804b582:	29 da                	sub    edx,ebx
 804b584:	89 d3                	mov    ebx,edx
 804b586:	89 d6                	mov    esi,edx
 804b588:	c1 ee 05             	shr    esi,0x5
 804b58b:	c1 e3 04             	shl    ebx,0x4
 804b58e:	31 f3                	xor    ebx,esi
 804b590:	01 d3                	add    ebx,edx
 804b592:	81 f3 15 0c 6e 40    	xor    ebx,0x406e0c15
 804b598:	29 d8                	sub    eax,ebx
 804b59a:	89 c3                	mov    ebx,eax
 804b59c:	89 c6                	mov    esi,eax
 804b59e:	c1 ee 05             	shr    esi,0x5
 804b5a1:	c1 e3 04             	shl    ebx,0x4
 804b5a4:	31 f3                	xor    ebx,esi
 804b5a6:	01 c3                	add    ebx,eax
 804b5a8:	81 f3 5c 92 36 a2    	xor    ebx,0xa236925c
 804b5ae:	29 da                	sub    edx,ebx
 804b5b0:	89 d3                	mov    ebx,edx
 804b5b2:	89 d6                	mov    esi,edx
 804b5b4:	c1 ee 05             	shr    esi,0x5
 804b5b7:	c1 e3 04             	shl    ebx,0x4
 804b5ba:	31 f3                	xor    ebx,esi
 804b5bc:	01 d3                	add    ebx,edx
 804b5be:	81 f3 3e 81 10 c0    	xor    ebx,0xc010813e
 804b5c4:	29 d8                	sub    eax,ebx
 804b5c6:	89 c3                	mov    ebx,eax
 804b5c8:	89 c6                	mov    esi,eax
 804b5ca:	c1 ee 05             	shr    esi,0x5
 804b5cd:	c1 e3 04             	shl    ebx,0x4
 804b5d0:	31 f3                	xor    ebx,esi
 804b5d2:	01 c3                	add    ebx,eax
 804b5d4:	81 f3 a3 38 d9 ce    	xor    ebx,0xced938a3
 804b5da:	29 da                	sub    edx,ebx
 804b5dc:	89 d3                	mov    ebx,edx
 804b5de:	89 d6                	mov    esi,edx
 804b5e0:	c1 ee 05             	shr    esi,0x5
 804b5e3:	c1 e3 04             	shl    ebx,0x4
 804b5e6:	31 f3                	xor    ebx,esi
 804b5e8:	01 d3                	add    ebx,edx
 804b5ea:	81 f3 54 03 2a 0e    	xor    ebx,0xe2a0354
 804b5f0:	29 d8                	sub    eax,ebx
 804b5f2:	89 c3                	mov    ebx,eax
 804b5f4:	89 c6                	mov    esi,eax
 804b5f6:	c1 ee 05             	shr    esi,0x5
 804b5f9:	c1 e3 04             	shl    ebx,0x4
 804b5fc:	31 f3                	xor    ebx,esi
 804b5fe:	01 c3                	add    ebx,eax
 804b600:	81 f3 9b 89 f2 6f    	xor    ebx,0x6ff2899b
 804b606:	29 da                	sub    edx,ebx
 804b608:	89 d3                	mov    ebx,edx
 804b60a:	89 d6                	mov    esi,edx
 804b60c:	c1 ee 05             	shr    esi,0x5
 804b60f:	c1 e3 04             	shl    ebx,0x4
 804b612:	31 f3                	xor    ebx,esi
 804b614:	01 d3                	add    ebx,edx
 804b616:	81 f3 9b 89 f2 6f    	xor    ebx,0x6ff2899b
 804b61c:	29 d8                	sub    eax,ebx
 804b61e:	89 c3                	mov    ebx,eax
 804b620:	89 c6                	mov    esi,eax
 804b622:	c1 ee 05             	shr    esi,0x5
 804b625:	c1 e3 04             	shl    ebx,0x4
 804b628:	31 f3                	xor    ebx,esi
 804b62a:	01 c3                	add    ebx,eax
 804b62c:	81 f3 13 14 6a e5    	xor    ebx,0xe56a1413
 804b632:	29 da                	sub    edx,ebx
 804b634:	89 d3                	mov    ebx,edx
 804b636:	89 d6                	mov    esi,edx
 804b638:	c1 ee 05             	shr    esi,0x5
 804b63b:	c1 e3 04             	shl    ebx,0x4
 804b63e:	31 f3                	xor    ebx,esi
 804b640:	01 d3                	add    ebx,edx
 804b642:	81 f3 31 45 6a 92    	xor    ebx,0x926a4531
 804b648:	29 d8                	sub    eax,ebx
 804b64a:	89 c3                	mov    ebx,eax
 804b64c:	89 c6                	mov    esi,eax
 804b64e:	c1 ee 05             	shr    esi,0x5
 804b651:	c1 e3 04             	shl    ebx,0x4
 804b654:	31 f3                	xor    ebx,esi
 804b656:	01 c3                	add    ebx,eax
 804b658:	81 f3 78 ab 58 29    	xor    ebx,0x2958ab78
 804b65e:	29 da                	sub    edx,ebx
 804b660:	89 d3                	mov    ebx,edx
 804b662:	89 d6                	mov    esi,edx
 804b664:	c1 e3 04             	shl    ebx,0x4
 804b667:	c1 ee 05             	shr    esi,0x5
 804b66a:	31 f3                	xor    ebx,esi
 804b66c:	01 d3                	add    ebx,edx
 804b66e:	81 f3 78 ab 58 29    	xor    ebx,0x2958ab78
 804b674:	29 d8                	sub    eax,ebx
 804b676:	89 c3                	mov    ebx,eax
 804b678:	89 c6                	mov    esi,eax
 804b67a:	c1 ee 05             	shr    esi,0x5
 804b67d:	c1 e3 04             	shl    ebx,0x4
 804b680:	31 f3                	xor    ebx,esi
 804b682:	01 c3                	add    ebx,eax
 804b684:	81 f3 bf 51 fb 55    	xor    ebx,0x55fb51bf
 804b68a:	29 da                	sub    edx,ebx
 804b68c:	89 d3                	mov    ebx,edx
 804b68e:	89 d6                	mov    esi,edx
 804b690:	c1 ee 05             	shr    esi,0x5
 804b693:	c1 e3 04             	shl    ebx,0x4
 804b696:	31 f3                	xor    ebx,esi
 804b698:	01 d3                	add    ebx,edx
 804b69a:	81 f3 a1 20 fb a8    	xor    ebx,0xa8fb20a1
 804b6a0:	29 d8                	sub    eax,ebx
 804b6a2:	89 c3                	mov    ebx,eax
 804b6a4:	89 c6                	mov    esi,eax
 804b6a6:	c1 ee 05             	shr    esi,0x5
 804b6a9:	c1 e3 04             	shl    ebx,0x4
 804b6ac:	31 f3                	xor    ebx,esi
 804b6ae:	01 c3                	add    ebx,eax
 804b6b0:	81 f3 b7 a2 14 f7    	xor    ebx,0xf714a2b7
 804b6b6:	29 da                	sub    edx,ebx
 804b6b8:	89 d3                	mov    ebx,edx
 804b6ba:	89 d6                	mov    esi,edx
 804b6bc:	c1 ee 05             	shr    esi,0x5
 804b6bf:	c1 e3 04             	shl    ebx,0x4
 804b6c2:	31 f3                	xor    ebx,esi
 804b6c4:	01 d3                	add    ebx,edx
 804b6c6:	81 f3 e8 a6 c3 0a    	xor    ebx,0xac3a6e8
 804b6cc:	29 d8                	sub    eax,ebx
 804b6ce:	89 c3                	mov    ebx,eax
 804b6d0:	89 c6                	mov    esi,eax
 804b6d2:	c1 ee 05             	shr    esi,0x5
 804b6d5:	c1 e3 04             	shl    ebx,0x4
 804b6d8:	31 f3                	xor    ebx,esi
 804b6da:	01 c3                	add    ebx,eax
 804b6dc:	81 f3 2f 2d 8c 6c    	xor    ebx,0x6c8c2d2f
 804b6e2:	29 da                	sub    edx,ebx
 804b6e4:	89 d3                	mov    ebx,edx
 804b6e6:	89 d6                	mov    esi,edx
 804b6e8:	c1 ee 05             	shr    esi,0x5
 804b6eb:	c1 e3 04             	shl    ebx,0x4
 804b6ee:	31 f3                	xor    ebx,esi
 804b6f0:	01 d3                	add    ebx,edx
 804b6f2:	81 f3 fe 28 dd 58    	xor    ebx,0x58dd28fe
 804b6f8:	29 d8                	sub    eax,ebx
 804b6fa:	89 c3                	mov    ebx,eax
 804b6fc:	89 c6                	mov    esi,eax
 804b6fe:	c1 ee 05             	shr    esi,0x5
 804b701:	c1 e3 04             	shl    ebx,0x4
 804b704:	31 f3                	xor    ebx,esi
 804b706:	01 c3                	add    ebx,eax
 804b708:	81 f3 94 c4 7a b0    	xor    ebx,0xb07ac494
 804b70e:	29 da                	sub    edx,ebx
 804b710:	89 d3                	mov    ebx,edx
 804b712:	89 d6                	mov    esi,edx
 804b714:	c1 ee 05             	shr    esi,0x5
 804b717:	c1 e3 04             	shl    ebx,0x4
 804b71a:	31 f3                	xor    ebx,esi
 804b71c:	01 d3                	add    ebx,edx
 804b71e:	81 f3 94 e4 54 7b    	xor    ebx,0x7b54e494
 804b724:	29 d8                	sub    eax,ebx
 804b726:	89 c3                	mov    ebx,eax
 804b728:	89 c6                	mov    esi,eax
 804b72a:	c1 ee 05             	shr    esi,0x5
 804b72d:	c1 e3 04             	shl    ebx,0x4
 804b730:	31 f3                	xor    ebx,esi
 804b732:	01 c3                	add    ebx,eax
 804b734:	81 f3 db 6a 1d dd    	xor    ebx,0xdd1d6adb
 804b73a:	29 da                	sub    edx,ebx
 804b73c:	89 d3                	mov    ebx,edx
 804b73e:	89 d6                	mov    esi,edx
 804b740:	c1 ee 05             	shr    esi,0x5
 804b743:	c1 e3 04             	shl    ebx,0x4
 804b746:	31 f3                	xor    ebx,esi
 804b748:	01 d3                	add    ebx,edx
 804b74a:	81 f3 db 4a 43 12    	xor    ebx,0x12434adb
 804b750:	29 d8                	sub    eax,ebx
 804b752:	89 c3                	mov    ebx,eax
 804b754:	89 c6                	mov    esi,eax
 804b756:	c1 ee 05             	shr    esi,0x5
 804b759:	c1 e3 04             	shl    ebx,0x4
 804b75c:	31 f3                	xor    ebx,esi
 804b75e:	01 c3                	add    ebx,eax
 804b760:	81 f3 d3 bb 36 7e    	xor    ebx,0x7e36bbd3
 804b766:	29 da                	sub    edx,ebx
 804b768:	89 d3                	mov    ebx,edx
 804b76a:	89 d6                	mov    esi,edx
 804b76c:	c1 ee 05             	shr    esi,0x5
 804b76f:	c1 e3 04             	shl    ebx,0x4
 804b772:	31 f3                	xor    ebx,esi
 804b774:	01 d3                	add    ebx,edx
 804b776:	81 f3 04 c0 e5 91    	xor    ebx,0x91e5c004
 804b77c:	29 d8                	sub    eax,ebx
 804b77e:	89 c3                	mov    ebx,eax
 804b780:	89 c6                	mov    esi,eax
 804b782:	c1 ee 05             	shr    esi,0x5
 804b785:	c1 e3 04             	shl    ebx,0x4
 804b788:	31 f3                	xor    ebx,esi
 804b78a:	01 c3                	add    ebx,eax
 804b78c:	81 f3 4b 46 ae f3    	xor    ebx,0xf3ae464b
 804b792:	29 da                	sub    edx,ebx
 804b794:	89 d3                	mov    ebx,edx
 804b796:	89 d6                	mov    esi,edx
 804b798:	c1 ee 05             	shr    esi,0x5
 804b79b:	c1 e3 04             	shl    ebx,0x4
 804b79e:	31 f3                	xor    ebx,esi
 804b7a0:	01 d3                	add    ebx,edx
 804b7a2:	81 f3 4b 46 ae f3    	xor    ebx,0xf3ae464b
 804b7a8:	29 d8                	sub    eax,ebx
 804b7aa:	89 c3                	mov    ebx,eax
 804b7ac:	89 c6                	mov    esi,eax
 804b7ae:	c1 ee 05             	shr    esi,0x5
 804b7b1:	c1 e3 04             	shl    ebx,0x4
 804b7b4:	31 f3                	xor    ebx,esi
 804b7b6:	01 c3                	add    ebx,eax
 804b7b8:	81 f3 b0 dd 9c 37    	xor    ebx,0x379cddb0
 804b7be:	29 da                	sub    edx,ebx
 804b7c0:	89 d3                	mov    ebx,edx
 804b7c2:	89 d6                	mov    esi,edx
 804b7c4:	c1 e3 04             	shl    ebx,0x4
 804b7c7:	c1 ee 05             	shr    esi,0x5
 804b7ca:	31 f3                	xor    ebx,esi
 804b7cc:	01 d3                	add    ebx,edx
 804b7ce:	81 f3 61 c8 c7 41    	xor    ebx,0x41c7c861
 804b7d4:	29 d8                	sub    eax,ebx
 804b7d6:	89 c3                	mov    ebx,eax
 804b7d8:	89 c6                	mov    esi,eax
 804b7da:	c1 ee 05             	shr    esi,0x5
 804b7dd:	c1 e3 04             	shl    ebx,0x4
 804b7e0:	31 f3                	xor    ebx,esi
 804b7e2:	01 c3                	add    ebx,eax
 804b7e4:	81 f3 f7 83 3f 64    	xor    ebx,0x643f83f7
 804b7ea:	29 da                	sub    edx,ebx
 804b7ec:	89 d3                	mov    ebx,edx
 804b7ee:	89 d6                	mov    esi,edx
 804b7f0:	c1 ee 05             	shr    esi,0x5
 804b7f3:	c1 e3 04             	shl    ebx,0x4
 804b7f6:	31 f3                	xor    ebx,esi
 804b7f8:	01 d3                	add    ebx,edx
 804b7fa:	81 f3 f7 83 3f 64    	xor    ebx,0x643f83f7
 804b800:	29 d8                	sub    eax,ebx
 804b802:	89 c3                	mov    ebx,eax
 804b804:	89 c6                	mov    esi,eax
 804b806:	c1 ee 05             	shr    esi,0x5
 804b809:	c1 e3 04             	shl    ebx,0x4
 804b80c:	31 f3                	xor    ebx,esi
 804b80e:	01 c3                	add    ebx,eax
 804b810:	81 f3 ef d4 58 05    	xor    ebx,0x558d4ef
 804b816:	29 da                	sub    edx,ebx
 804b818:	89 d3                	mov    ebx,edx
 804b81a:	89 d6                	mov    esi,edx
 804b81c:	c1 ee 05             	shr    esi,0x5
 804b81f:	c1 e3 04             	shl    ebx,0x4
 804b822:	31 f3                	xor    ebx,esi
 804b824:	01 d3                	add    ebx,edx
 804b826:	81 f3 3e ea 2d fb    	xor    ebx,0xfb2dea3e
 804b82c:	29 d8                	sub    eax,ebx
 804b82e:	89 c3                	mov    ebx,eax
 804b830:	89 c6                	mov    esi,eax
 804b832:	c1 ee 05             	shr    esi,0x5
 804b835:	c1 e3 04             	shl    ebx,0x4
 804b838:	31 f3                	xor    ebx,esi
 804b83a:	01 c3                	add    ebx,eax
 804b83c:	81 f3 67 5f d0 7a    	xor    ebx,0x7ad05f67
 804b842:	29 da                	sub    edx,ebx
 804b844:	89 d3                	mov    ebx,edx
 804b846:	89 d6                	mov    esi,edx
 804b848:	c1 ee 05             	shr    esi,0x5
 804b84b:	c1 e3 04             	shl    ebx,0x4
 804b84e:	31 f3                	xor    ebx,esi
 804b850:	01 d3                	add    ebx,edx
 804b852:	81 f3 67 5f d0 7a    	xor    ebx,0x7ad05f67
 804b858:	29 d8                	sub    eax,ebx
 804b85a:	89 c3                	mov    ebx,eax
 804b85c:	89 c6                	mov    esi,eax
 804b85e:	c1 ee 05             	shr    esi,0x5
 804b861:	c1 e3 04             	shl    ebx,0x4
 804b864:	31 f3                	xor    ebx,esi
 804b866:	01 c3                	add    ebx,eax
 804b868:	81 f3 cc f6 be be    	xor    ebx,0xbebef6cc
 804b86e:	29 da                	sub    edx,ebx
 804b870:	89 d3                	mov    ebx,edx
 804b872:	89 d6                	mov    esi,edx
 804b874:	c1 ee 05             	shr    esi,0x5
 804b877:	c1 e3 04             	shl    ebx,0x4
 804b87a:	31 f3                	xor    ebx,esi
 804b87c:	01 d3                	add    ebx,edx
 804b87e:	81 f3 ae e5 98 dc    	xor    ebx,0xdc98e5ae
 804b884:	29 d8                	sub    eax,ebx
 804b886:	89 c3                	mov    ebx,eax
 804b888:	89 c6                	mov    esi,eax
 804b88a:	c1 ee 05             	shr    esi,0x5
 804b88d:	c1 e3 04             	shl    ebx,0x4
 804b890:	31 f3                	xor    ebx,esi
 804b892:	01 c3                	add    ebx,eax
 804b894:	81 f3 13 9d 61 eb    	xor    ebx,0xeb619d13
 804b89a:	29 da                	sub    edx,ebx
 804b89c:	89 d3                	mov    ebx,edx
 804b89e:	89 d6                	mov    esi,edx
 804b8a0:	c1 ee 05             	shr    esi,0x5
 804b8a3:	c1 e3 04             	shl    ebx,0x4
 804b8a6:	31 f3                	xor    ebx,esi
 804b8a8:	01 d3                	add    ebx,edx
 804b8aa:	81 f3 c4 67 b2 2a    	xor    ebx,0x2ab267c4
 804b8b0:	29 d8                	sub    eax,ebx
 804b8b2:	89 c3                	mov    ebx,eax
 804b8b4:	89 c6                	mov    esi,eax
 804b8b6:	c1 ee 05             	shr    esi,0x5
 804b8b9:	c1 e3 04             	shl    ebx,0x4
 804b8bc:	31 f3                	xor    ebx,esi
 804b8be:	01 c3                	add    ebx,eax
 804b8c0:	81 f3 0b ee 7a 8c    	xor    ebx,0x8c7aee0b
 804b8c6:	29 da                	sub    edx,ebx
 804b8c8:	89 d3                	mov    ebx,edx
 804b8ca:	89 d6                	mov    esi,edx
 804b8cc:	c1 ee 05             	shr    esi,0x5
 804b8cf:	c1 e3 04             	shl    ebx,0x4
 804b8d2:	31 f3                	xor    ebx,esi
 804b8d4:	01 d3                	add    ebx,edx
 804b8d6:	81 f3 5a 23 2a 4d    	xor    ebx,0x4d2a235a
 804b8dc:	29 d8                	sub    eax,ebx
 804b8de:	89 c3                	mov    ebx,eax
 804b8e0:	89 c6                	mov    esi,eax
 804b8e2:	c1 ee 05             	shr    esi,0x5
 804b8e5:	c1 e3 04             	shl    ebx,0x4
 804b8e8:	31 f3                	xor    ebx,esi
 804b8ea:	01 c3                	add    ebx,eax
 804b8ec:	81 f3 83 78 f2 01    	xor    ebx,0x1f27883
 804b8f2:	29 da                	sub    edx,ebx
 804b8f4:	89 d3                	mov    ebx,edx
 804b8f6:	89 d6                	mov    esi,edx
 804b8f8:	c1 ee 05             	shr    esi,0x5
 804b8fb:	c1 e3 04             	shl    ebx,0x4
 804b8fe:	31 f3                	xor    ebx,esi
 804b900:	01 d3                	add    ebx,edx
 804b902:	81 f3 a1 89 18 e4    	xor    ebx,0xe41889a1
 804b908:	29 d8                	sub    eax,ebx
 804b90a:	89 c3                	mov    ebx,eax
 804b90c:	89 c6                	mov    esi,eax
 804b90e:	c1 ee 05             	shr    esi,0x5
 804b911:	c1 e3 04             	shl    ebx,0x4
 804b914:	31 f3                	xor    ebx,esi
 804b916:	01 c3                	add    ebx,eax
 804b918:	81 f3 e8 0f e1 45    	xor    ebx,0x45e10fe8
 804b91e:	29 da                	sub    edx,ebx
 804b920:	89 d3                	mov    ebx,edx
 804b922:	89 d6                	mov    esi,edx
 804b924:	c1 e3 04             	shl    ebx,0x4
 804b927:	c1 ee 05             	shr    esi,0x5
 804b92a:	31 f3                	xor    ebx,esi
 804b92c:	01 d3                	add    ebx,edx
 804b92e:	81 f3 e8 0f e1 45    	xor    ebx,0x45e10fe8
 804b934:	29 d8                	sub    eax,ebx
 804b936:	89 c3                	mov    ebx,eax
 804b938:	89 c6                	mov    esi,eax
 804b93a:	c1 ee 05             	shr    esi,0x5
 804b93d:	c1 e3 04             	shl    ebx,0x4
 804b940:	31 f3                	xor    ebx,esi
 804b942:	01 c3                	add    ebx,eax
 804b944:	81 f3 2f b6 83 72    	xor    ebx,0x7283b62f
 804b94a:	29 da                	sub    edx,ebx
 804b94c:	89 d3                	mov    ebx,edx
 804b94e:	89 d6                	mov    esi,edx
 804b950:	c1 ee 05             	shr    esi,0x5
 804b953:	c1 e3 04             	shl    ebx,0x4
 804b956:	31 f3                	xor    ebx,esi
 804b958:	01 d3                	add    ebx,edx
 804b95a:	81 f3 11 85 83 c5    	xor    ebx,0xc5838511
 804b960:	29 d8                	sub    eax,ebx
 804b962:	89 c3                	mov    ebx,eax
 804b964:	89 c6                	mov    esi,eax
 804b966:	c1 ee 05             	shr    esi,0x5
 804b969:	c1 e3 04             	shl    ebx,0x4
 804b96c:	31 f3                	xor    ebx,esi
 804b96e:	01 c3                	add    ebx,eax
 804b970:	81 f3 27 07 9d 13    	xor    ebx,0x139d0727
 804b976:	29 da                	sub    edx,ebx
 804b978:	89 d3                	mov    ebx,edx
 804b97a:	89 d6                	mov    esi,edx
 804b97c:	c1 ee 05             	shr    esi,0x5
 804b97f:	c1 e3 04             	shl    ebx,0x4
 804b982:	31 f3                	xor    ebx,esi
 804b984:	01 d3                	add    ebx,edx
 804b986:	81 f3 27 07 9d 13    	xor    ebx,0x139d0727
 804b98c:	29 d8                	sub    eax,ebx
 804b98e:	89 c3                	mov    ebx,eax
 804b990:	89 c6                	mov    esi,eax
 804b992:	c1 ee 05             	shr    esi,0x5
 804b995:	c1 e3 04             	shl    ebx,0x4
 804b998:	31 f3                	xor    ebx,esi
 804b99a:	01 c3                	add    ebx,eax
 804b99c:	81 f3 9f 91 14 89    	xor    ebx,0x8914919f
 804b9a2:	29 da                	sub    edx,ebx
 804b9a4:	89 d3                	mov    ebx,edx
 804b9a6:	89 d6                	mov    esi,edx
 804b9a8:	c1 ee 05             	shr    esi,0x5
 804b9ab:	c1 e3 04             	shl    ebx,0x4
 804b9ae:	31 f3                	xor    ebx,esi
 804b9b0:	01 d3                	add    ebx,edx
 804b9b2:	81 f3 bd c2 14 36    	xor    ebx,0x3614c2bd
 804b9b8:	29 d8                	sub    eax,ebx
 804b9ba:	89 c3                	mov    ebx,eax
 804b9bc:	89 c6                	mov    esi,eax
 804b9be:	c1 ee 05             	shr    esi,0x5
 804b9c1:	c1 e3 04             	shl    ebx,0x4
 804b9c4:	31 f3                	xor    ebx,esi
 804b9c6:	01 c3                	add    ebx,eax
 804b9c8:	81 f3 04 29 03 cd    	xor    ebx,0xcd032904
 804b9ce:	29 da                	sub    edx,ebx
 804b9d0:	89 d3                	mov    ebx,edx
 804b9d2:	89 d6                	mov    esi,edx
 804b9d4:	c1 ee 05             	shr    esi,0x5
 804b9d7:	c1 e3 04             	shl    ebx,0x4
 804b9da:	31 f3                	xor    ebx,esi
 804b9dc:	01 d3                	add    ebx,edx
 804b9de:	81 f3 04 29 03 cd    	xor    ebx,0xcd032904
 804b9e4:	29 d8                	sub    eax,ebx
 804b9e6:	89 c3                	mov    ebx,eax
 804b9e8:	89 c6                	mov    esi,eax
 804b9ea:	c1 ee 05             	shr    esi,0x5
 804b9ed:	c1 e3 04             	shl    ebx,0x4
 804b9f0:	31 f3                	xor    ebx,esi
 804b9f2:	01 c3                	add    ebx,eax
 804b9f4:	81 f3 4b cf a5 f9    	xor    ebx,0xf9a5cf4b
 804b9fa:	29 da                	sub    edx,ebx
 804b9fc:	89 d3                	mov    ebx,edx
 804b9fe:	89 d6                	mov    esi,edx
 804ba00:	c1 ee 05             	shr    esi,0x5
 804ba03:	c1 e3 04             	shl    ebx,0x4
 804ba06:	31 f3                	xor    ebx,esi
 804ba08:	01 d3                	add    ebx,edx
 804ba0a:	81 f3 4b af cb 2e    	xor    ebx,0x2ecbaf4b
 804ba10:	29 d8                	sub    eax,ebx
 804ba12:	89 c3                	mov    ebx,eax
 804ba14:	89 c6                	mov    esi,eax
 804ba16:	c1 ee 05             	shr    esi,0x5
 804ba19:	c1 e3 04             	shl    ebx,0x4
 804ba1c:	31 f3                	xor    ebx,esi
 804ba1e:	01 c3                	add    ebx,eax
 804ba20:	81 f3 43 20 bf 9a    	xor    ebx,0x9abf2043
 804ba26:	29 da                	sub    edx,ebx
 804ba28:	89 d3                	mov    ebx,edx
 804ba2a:	89 d6                	mov    esi,edx
 804ba2c:	c1 ee 05             	shr    esi,0x5
 804ba2f:	c1 e3 04             	shl    ebx,0x4
 804ba32:	31 f3                	xor    ebx,esi
 804ba34:	01 d3                	add    ebx,edx
 804ba36:	81 f3 74 24 6e ae    	xor    ebx,0xae6e2474
 804ba3c:	29 d8                	sub    eax,ebx
 804ba3e:	89 c3                	mov    ebx,eax
 804ba40:	89 c6                	mov    esi,eax
 804ba42:	c1 ee 05             	shr    esi,0x5
 804ba45:	c1 e3 04             	shl    ebx,0x4
 804ba48:	31 f3                	xor    ebx,esi
 804ba4a:	01 c3                	add    ebx,eax
 804ba4c:	81 f3 bb aa 36 10    	xor    ebx,0x1036aabb
 804ba52:	29 da                	sub    edx,ebx
 804ba54:	89 d3                	mov    ebx,edx
 804ba56:	89 d6                	mov    esi,edx
 804ba58:	c1 ee 05             	shr    esi,0x5
 804ba5b:	c1 e3 04             	shl    ebx,0x4
 804ba5e:	31 f3                	xor    ebx,esi
 804ba60:	01 d3                	add    ebx,edx
 804ba62:	81 f3 8a a6 87 fc    	xor    ebx,0xfc87a68a
 804ba68:	29 d8                	sub    eax,ebx
 804ba6a:	89 c3                	mov    ebx,eax
 804ba6c:	89 c6                	mov    esi,eax
 804ba6e:	c1 ee 05             	shr    esi,0x5
 804ba71:	c1 e3 04             	shl    ebx,0x4
 804ba74:	31 f3                	xor    ebx,esi
 804ba76:	01 c3                	add    ebx,eax
 804ba78:	81 f3 20 42 25 54    	xor    ebx,0x54254220
 804ba7e:	29 da                	sub    edx,ebx
 804ba80:	89 d3                	mov    ebx,edx
 804ba82:	89 d6                	mov    esi,edx
 804ba84:	c1 e3 04             	shl    ebx,0x4
 804ba87:	c1 ee 05             	shr    esi,0x5
 804ba8a:	31 f3                	xor    ebx,esi
 804ba8c:	01 d3                	add    ebx,edx
 804ba8e:	81 f3 20 62 ff 1e    	xor    ebx,0x1eff6220
 804ba94:	29 d8                	sub    eax,ebx
 804ba96:	89 c3                	mov    ebx,eax
 804ba98:	89 c6                	mov    esi,eax
 804ba9a:	c1 ee 05             	shr    esi,0x5
 804ba9d:	c1 e3 04             	shl    ebx,0x4
 804baa0:	31 f3                	xor    ebx,esi
 804baa2:	01 c3                	add    ebx,eax
 804baa4:	81 f3 67 e8 c7 80    	xor    ebx,0x80c7e867
 804baaa:	29 da                	sub    edx,ebx
 804baac:	89 d3                	mov    ebx,edx
 804baae:	89 d6                	mov    esi,edx
 804bab0:	c1 ee 05             	shr    esi,0x5
 804bab3:	c1 e3 04             	shl    ebx,0x4
 804bab6:	31 f3                	xor    ebx,esi
 804bab8:	01 d3                	add    ebx,edx
 804baba:	81 f3 67 c8 ed b5    	xor    ebx,0xb5edc867
 804bac0:	29 d8                	sub    eax,ebx
 804bac2:	89 c3                	mov    ebx,eax
 804bac4:	89 c6                	mov    esi,eax
 804bac6:	c1 ee 05             	shr    esi,0x5
 804bac9:	c1 e3 04             	shl    ebx,0x4
 804bacc:	31 f3                	xor    ebx,esi
 804bace:	01 c3                	add    ebx,eax
 804bad0:	81 f3 5f 39 e1 21    	xor    ebx,0x21e1395f
 804bad6:	29 da                	sub    edx,ebx
 804bad8:	89 d3                	mov    ebx,edx
 804bada:	89 d6                	mov    esi,edx
 804badc:	c1 ee 05             	shr    esi,0x5
 804badf:	c1 e3 04             	shl    ebx,0x4
 804bae2:	31 f3                	xor    ebx,esi
 804bae4:	01 d3                	add    ebx,edx
 804bae6:	81 f3 ae 4e b6 17    	xor    ebx,0x17b64eae
 804baec:	29 d8                	sub    eax,ebx
 804baee:	89 c3                	mov    ebx,eax
 804baf0:	89 c6                	mov    esi,eax
 804baf2:	c1 ee 05             	shr    esi,0x5
 804baf5:	c1 e3 04             	shl    ebx,0x4
 804baf8:	31 f3                	xor    ebx,esi
 804bafa:	01 c3                	add    ebx,eax
 804bafc:	81 f3 d7 c3 58 97    	xor    ebx,0x9758c3d7
 804bb02:	29 da                	sub    edx,ebx
 804bb04:	89 d3                	mov    ebx,edx
 804bb06:	89 d6                	mov    esi,edx
 804bb08:	c1 ee 05             	shr    esi,0x5
 804bb0b:	c1 e3 04             	shl    ebx,0x4
 804bb0e:	31 f3                	xor    ebx,esi
 804bb10:	01 d3                	add    ebx,edx
 804bb12:	81 f3 d7 c3 58 97    	xor    ebx,0x9758c3d7
 804bb18:	29 d8                	sub    eax,ebx
 804bb1a:	89 c3                	mov    ebx,eax
 804bb1c:	89 c6                	mov    esi,eax
 804bb1e:	c1 ee 05             	shr    esi,0x5
 804bb21:	c1 e3 04             	shl    ebx,0x4
 804bb24:	31 f3                	xor    ebx,esi
 804bb26:	01 c3                	add    ebx,eax
 804bb28:	81 f3 3c 5b 47 db    	xor    ebx,0xdb475b3c
 804bb2e:	29 da                	sub    edx,ebx
 804bb30:	89 d3                	mov    ebx,edx
 804bb32:	89 d6                	mov    esi,edx
 804bb34:	c1 ee 05             	shr    esi,0x5
 804bb37:	c1 e3 04             	shl    ebx,0x4
 804bb3a:	31 f3                	xor    ebx,esi
 804bb3c:	01 d3                	add    ebx,edx
 804bb3e:	81 f3 ed 45 72 e5    	xor    ebx,0xe57245ed
 804bb44:	29 d8                	sub    eax,ebx
 804bb46:	89 c3                	mov    ebx,eax
 804bb48:	89 c6                	mov    esi,eax
 804bb4a:	c1 ee 05             	shr    esi,0x5
 804bb4d:	c1 e3 04             	shl    ebx,0x4
 804bb50:	31 f3                	xor    ebx,esi
 804bb52:	01 c3                	add    ebx,eax
 804bb54:	81 f3 83 01 ea 07    	xor    ebx,0x7ea0183
 804bb5a:	29 da                	sub    edx,ebx
 804bb5c:	89 d3                	mov    ebx,edx
 804bb5e:	89 d6                	mov    esi,edx
 804bb60:	c1 ee 05             	shr    esi,0x5
 804bb63:	c1 e3 04             	shl    ebx,0x4
 804bb66:	31 f3                	xor    ebx,esi
 804bb68:	01 d3                	add    ebx,edx
 804bb6a:	81 f3 83 01 ea 07    	xor    ebx,0x7ea0183
 804bb70:	29 d8                	sub    eax,ebx
 804bb72:	89 c3                	mov    ebx,eax
 804bb74:	89 c6                	mov    esi,eax
 804bb76:	c1 ee 05             	shr    esi,0x5
 804bb79:	c1 e3 04             	shl    ebx,0x4
 804bb7c:	31 f3                	xor    ebx,esi
 804bb7e:	01 c3                	add    ebx,eax
 804bb80:	81 f3 7b 52 03 a9    	xor    ebx,0xa903527b
 804bb86:	29 da                	sub    edx,ebx
 804bb88:	89 d3                	mov    ebx,edx
 804bb8a:	89 d6                	mov    esi,edx
 804bb8c:	c1 ee 05             	shr    esi,0x5
 804bb8f:	c1 e3 04             	shl    ebx,0x4
 804bb92:	31 f3                	xor    ebx,esi
 804bb94:	01 d3                	add    ebx,edx
 804bb96:	81 f3 ca 87 b2 69    	xor    ebx,0x69b287ca
 804bb9c:	29 d8                	sub    eax,ebx
 804bb9e:	89 c3                	mov    ebx,eax
 804bba0:	89 c6                	mov    esi,eax
 804bba2:	c1 ee 05             	shr    esi,0x5
 804bba5:	c1 e3 04             	shl    ebx,0x4
 804bba8:	31 f3                	xor    ebx,esi
 804bbaa:	01 c3                	add    ebx,eax
 804bbac:	81 f3 f3 dc 7a 1e    	xor    ebx,0x1e7adcf3
 804bbb2:	29 da                	sub    edx,ebx
 804bbb4:	89 d3                	mov    ebx,edx
 804bbb6:	89 d6                	mov    esi,edx
 804bbb8:	c1 ee 05             	shr    esi,0x5
 804bbbb:	c1 e3 04             	shl    ebx,0x4
 804bbbe:	31 f3                	xor    ebx,esi
 804bbc0:	01 d3                	add    ebx,edx
 804bbc2:	81 f3 11 ee a0 00    	xor    ebx,0xa0ee11
 804bbc8:	29 d8                	sub    eax,ebx
 804bbca:	89 c3                	mov    ebx,eax
 804bbcc:	89 c6                	mov    esi,eax
 804bbce:	c1 ee 05             	shr    esi,0x5
 804bbd1:	c1 e3 04             	shl    ebx,0x4
 804bbd4:	31 f3                	xor    ebx,esi
 804bbd6:	01 c3                	add    ebx,eax
 804bbd8:	81 f3 58 74 69 62    	xor    ebx,0x62697458
 804bbde:	29 da                	sub    edx,ebx
 804bbe0:	89 d3                	mov    ebx,edx
 804bbe2:	89 d6                	mov    esi,edx
 804bbe4:	c1 e3 04             	shl    ebx,0x4
 804bbe7:	c1 ee 05             	shr    esi,0x5
 804bbea:	31 f3                	xor    ebx,esi
 804bbec:	01 d3                	add    ebx,edx
 804bbee:	81 f3 3a 63 43 80    	xor    ebx,0x8043633a
 804bbf4:	29 d8                	sub    eax,ebx
 804bbf6:	89 c3                	mov    ebx,eax
 804bbf8:	89 c6                	mov    esi,eax
 804bbfa:	c1 ee 05             	shr    esi,0x5
 804bbfd:	c1 e3 04             	shl    ebx,0x4
 804bc00:	31 f3                	xor    ebx,esi
 804bc02:	01 c3                	add    ebx,eax
 804bc04:	81 f3 9f 1a 0c 8f    	xor    ebx,0x8f0c1a9f
 804bc0a:	29 da                	sub    edx,ebx
 804bc0c:	89 d3                	mov    ebx,edx
 804bc0e:	89 d6                	mov    esi,edx
 804bc10:	c1 ee 05             	shr    esi,0x5
 804bc13:	c1 e3 04             	shl    ebx,0x4
 804bc16:	31 f3                	xor    ebx,esi
 804bc18:	01 d3                	add    ebx,edx
 804bc1a:	81 f3 50 e5 5c ce    	xor    ebx,0xce5ce550
 804bc20:	29 d8                	sub    eax,ebx
 804bc22:	89 c3                	mov    ebx,eax
 804bc24:	89 c6                	mov    esi,eax
 804bc26:	c1 ee 05             	shr    esi,0x5
 804bc29:	c1 e3 04             	shl    ebx,0x4
 804bc2c:	31 f3                	xor    ebx,esi
 804bc2e:	01 c3                	add    ebx,eax
 804bc30:	81 f3 97 6b 25 30    	xor    ebx,0x30256b97
 804bc36:	29 da                	sub    edx,ebx
 804bc38:	89 d3                	mov    ebx,edx
 804bc3a:	89 d6                	mov    esi,edx
 804bc3c:	c1 ee 05             	shr    esi,0x5
 804bc3f:	c1 e3 04             	shl    ebx,0x4
 804bc42:	31 f3                	xor    ebx,esi
 804bc44:	01 d3                	add    ebx,edx
 804bc46:	81 f3 e6 a0 d4 f0    	xor    ebx,0xf0d4a0e6
 804bc4c:	29 d8                	sub    eax,ebx
 804bc4e:	89 c3                	mov    ebx,eax
 804bc50:	89 c6                	mov    esi,eax
 804bc52:	c1 ee 05             	shr    esi,0x5
 804bc55:	c1 e3 04             	shl    ebx,0x4
 804bc58:	31 f3                	xor    ebx,esi
 804bc5a:	01 c3                	add    ebx,eax
 804bc5c:	81 f3 0f f6 9c a5    	xor    ebx,0xa59cf60f
 804bc62:	29 da                	sub    edx,ebx
 804bc64:	89 d3                	mov    ebx,edx
 804bc66:	89 d6                	mov    esi,edx
 804bc68:	c1 ee 05             	shr    esi,0x5
 804bc6b:	c1 e3 04             	shl    ebx,0x4
 804bc6e:	31 f3                	xor    ebx,esi
 804bc70:	01 d3                	add    ebx,edx
 804bc72:	81 f3 2d 27 9d 52    	xor    ebx,0x529d272d
 804bc78:	29 d8                	sub    eax,ebx
 804bc7a:	89 c3                	mov    ebx,eax
 804bc7c:	89 c6                	mov    esi,eax
 804bc7e:	c1 ee 05             	shr    esi,0x5
 804bc81:	c1 e3 04             	shl    ebx,0x4
 804bc84:	31 f3                	xor    ebx,esi
 804bc86:	01 c3                	add    ebx,eax
 804bc88:	81 f3 74 8d 8b e9    	xor    ebx,0xe98b8d74
 804bc8e:	29 da                	sub    edx,ebx
 804bc90:	89 d3                	mov    ebx,edx
 804bc92:	89 d6                	mov    esi,edx
 804bc94:	c1 ee 05             	shr    esi,0x5
 804bc97:	c1 e3 04             	shl    ebx,0x4
 804bc9a:	31 f3                	xor    ebx,esi
 804bc9c:	01 d3                	add    ebx,edx
 804bc9e:	81 f3 74 8d 8b e9    	xor    ebx,0xe98b8d74
 804bca4:	29 d8                	sub    eax,ebx
 804bca6:	89 c3                	mov    ebx,eax
 804bca8:	89 c6                	mov    esi,eax
 804bcaa:	c1 ee 05             	shr    esi,0x5
 804bcad:	c1 e3 04             	shl    ebx,0x4
 804bcb0:	31 f3                	xor    ebx,esi
 804bcb2:	01 c3                	add    ebx,eax
 804bcb4:	81 f3 bb 33 2e 16    	xor    ebx,0x162e33bb
 804bcba:	29 da                	sub    edx,ebx
 804bcbc:	89 d3                	mov    ebx,edx
 804bcbe:	89 d6                	mov    esi,edx
 804bcc0:	c1 ee 05             	shr    esi,0x5
 804bcc3:	c1 e3 04             	shl    ebx,0x4
 804bcc6:	31 f3                	xor    ebx,esi
 804bcc8:	01 d3                	add    ebx,edx
 804bcca:	81 f3 9d 02 2e 69    	xor    ebx,0x692e029d
 804bcd0:	29 d8                	sub    eax,ebx
 804bcd2:	89 c3                	mov    ebx,eax
 804bcd4:	89 c6                	mov    esi,eax
 804bcd6:	c1 ee 05             	shr    esi,0x5
 804bcd9:	c1 e3 04             	shl    ebx,0x4
 804bcdc:	31 f3                	xor    ebx,esi
 804bcde:	01 c3                	add    ebx,eax
 804bce0:	81 f3 b3 84 47 b7    	xor    ebx,0xb74784b3
 804bce6:	29 da                	sub    edx,ebx
 804bce8:	89 d3                	mov    ebx,edx
 804bcea:	89 d6                	mov    esi,edx
 804bcec:	c1 ee 05             	shr    esi,0x5
 804bcef:	c1 e3 04             	shl    ebx,0x4
 804bcf2:	31 f3                	xor    ebx,esi
 804bcf4:	01 d3                	add    ebx,edx
 804bcf6:	81 f3 b3 84 47 b7    	xor    ebx,0xb74784b3
 804bcfc:	29 d8                	sub    eax,ebx
 804bcfe:	89 c3                	mov    ebx,eax
 804bd00:	89 c6                	mov    esi,eax
 804bd02:	c1 ee 05             	shr    esi,0x5
 804bd05:	c1 e3 04             	shl    ebx,0x4
 804bd08:	31 f3                	xor    ebx,esi
 804bd0a:	01 c3                	add    ebx,eax
 804bd0c:	81 f3 2b 0f bf 2c    	xor    ebx,0x2cbf0f2b
 804bd12:	29 da                	sub    edx,ebx
 804bd14:	89 d3                	mov    ebx,edx
 804bd16:	89 d6                	mov    esi,edx
 804bd18:	c1 ee 05             	shr    esi,0x5
 804bd1b:	c1 e3 04             	shl    ebx,0x4
 804bd1e:	31 f3                	xor    ebx,esi
 804bd20:	01 d3                	add    ebx,edx
 804bd22:	81 f3 49 40 bf d9    	xor    ebx,0xd9bf4049
 804bd28:	29 d8                	sub    eax,ebx
 804bd2a:	89 c3                	mov    ebx,eax
 804bd2c:	89 c6                	mov    esi,eax
 804bd2e:	c1 ee 05             	shr    esi,0x5
 804bd31:	c1 e3 04             	shl    ebx,0x4
 804bd34:	31 f3                	xor    ebx,esi
 804bd36:	01 c3                	add    ebx,eax
 804bd38:	81 f3 90 a6 ad 70    	xor    ebx,0x70ada690
 804bd3e:	29 da                	sub    edx,ebx
 804bd40:	89 d3                	mov    ebx,edx
 804bd42:	89 d6                	mov    esi,edx
 804bd44:	c1 e3 04             	shl    ebx,0x4
 804bd47:	c1 ee 05             	shr    esi,0x5
 804bd4a:	31 f3                	xor    ebx,esi
 804bd4c:	01 d3                	add    ebx,edx
 804bd4e:	81 f3 90 c6 87 3b    	xor    ebx,0x3b87c690
 804bd54:	29 d8                	sub    eax,ebx
 804bd56:	89 c3                	mov    ebx,eax
 804bd58:	89 c6                	mov    esi,eax
 804bd5a:	c1 ee 05             	shr    esi,0x5
 804bd5d:	c1 e3 04             	shl    ebx,0x4
 804bd60:	31 f3                	xor    ebx,esi
 804bd62:	01 c3                	add    ebx,eax
 804bd64:	81 f3 d7 4c 50 9d    	xor    ebx,0x9d504cd7
 804bd6a:	29 da                	sub    edx,ebx
 804bd6c:	89 d3                	mov    ebx,edx
 804bd6e:	89 d6                	mov    esi,edx
 804bd70:	c1 ee 05             	shr    esi,0x5
 804bd73:	c1 e3 04             	shl    ebx,0x4
 804bd76:	31 f3                	xor    ebx,esi
 804bd78:	01 d3                	add    ebx,edx
 804bd7a:	81 f3 d7 2c 76 d2    	xor    ebx,0xd2762cd7
 804bd80:	29 d8                	sub    eax,ebx
 804bd82:	89 c3                	mov    ebx,eax
 804bd84:	89 c6                	mov    esi,eax
 804bd86:	c1 ee 05             	shr    esi,0x5
 804bd89:	c1 e3 04             	shl    ebx,0x4
 804bd8c:	31 f3                	xor    ebx,esi
 804bd8e:	01 c3                	add    ebx,eax
 804bd90:	81 f3 cf 9d 69 3e    	xor    ebx,0x3e699dcf
 804bd96:	29 da                	sub    edx,ebx
 804bd98:	89 d3                	mov    ebx,edx
 804bd9a:	89 d6                	mov    esi,edx
 804bd9c:	c1 ee 05             	shr    esi,0x5
 804bd9f:	c1 e3 04             	shl    ebx,0x4
 804bda2:	31 f3                	xor    ebx,esi
 804bda4:	01 d3                	add    ebx,edx
 804bda6:	81 f3 00 a2 18 52    	xor    ebx,0x5218a200
 804bdac:	29 d8                	sub    eax,ebx
 804bdae:	89 c3                	mov    ebx,eax
 804bdb0:	89 c6                	mov    esi,eax
 804bdb2:	c1 ee 05             	shr    esi,0x5
 804bdb5:	c1 e3 04             	shl    ebx,0x4
 804bdb8:	31 f3                	xor    ebx,esi
 804bdba:	01 c3                	add    ebx,eax
 804bdbc:	81 f3 47 28 e1 b3    	xor    ebx,0xb3e12847
 804bdc2:	29 da                	sub    edx,ebx
 804bdc4:	89 d3                	mov    ebx,edx
 804bdc6:	89 d6                	mov    esi,edx
 804bdc8:	c1 ee 05             	shr    esi,0x5
 804bdcb:	c1 e3 04             	shl    ebx,0x4
 804bdce:	31 f3                	xor    ebx,esi
 804bdd0:	01 d3                	add    ebx,edx
 804bdd2:	81 f3 16 24 32 a0    	xor    ebx,0xa0322416
 804bdd8:	29 d8                	sub    eax,ebx
 804bdda:	89 c3                	mov    ebx,eax
 804bddc:	89 c6                	mov    esi,eax
 804bdde:	c1 ee 05             	shr    esi,0x5
 804bde1:	c1 e3 04             	shl    ebx,0x4
 804bde4:	31 f3                	xor    ebx,esi
 804bde6:	01 c3                	add    ebx,eax
 804bde8:	81 f3 ac bf cf f7    	xor    ebx,0xf7cfbfac
 804bdee:	29 da                	sub    edx,ebx
 804bdf0:	89 d3                	mov    ebx,edx
 804bdf2:	89 d6                	mov    esi,edx
 804bdf4:	c1 ee 05             	shr    esi,0x5
 804bdf7:	c1 e3 04             	shl    ebx,0x4
 804bdfa:	31 f3                	xor    ebx,esi
 804bdfc:	01 d3                	add    ebx,edx
 804bdfe:	81 f3 5d aa fa 01    	xor    ebx,0x1faaa5d
 804be04:	29 d8                	sub    eax,ebx
 804be06:	89 c3                	mov    ebx,eax
 804be08:	89 c6                	mov    esi,eax
 804be0a:	c1 ee 05             	shr    esi,0x5
 804be0d:	c1 e3 04             	shl    ebx,0x4
 804be10:	31 f3                	xor    ebx,esi
 804be12:	01 c3                	add    ebx,eax
 804be14:	81 f3 f3 65 72 24    	xor    ebx,0x247265f3
 804be1a:	29 da                	sub    edx,ebx
 804be1c:	89 d3                	mov    ebx,edx
 804be1e:	89 d6                	mov    esi,edx
 804be20:	c1 ee 05             	shr    esi,0x5
 804be23:	c1 e3 04             	shl    ebx,0x4
 804be26:	31 f3                	xor    ebx,esi
 804be28:	01 d3                	add    ebx,edx
 804be2a:	81 f3 f3 65 72 24    	xor    ebx,0x247265f3
 804be30:	29 d8                	sub    eax,ebx
 804be32:	89 c3                	mov    ebx,eax
 804be34:	89 c6                	mov    esi,eax
 804be36:	c1 ee 05             	shr    esi,0x5
 804be39:	c1 e3 04             	shl    ebx,0x4
 804be3c:	31 f3                	xor    ebx,esi
 804be3e:	01 c3                	add    ebx,eax
 804be40:	81 f3 eb b6 8b c5    	xor    ebx,0xc58bb6eb
 804be46:	29 da                	sub    edx,ebx
 804be48:	89 d3                	mov    ebx,edx
 804be4a:	89 d6                	mov    esi,edx
 804be4c:	c1 ee 05             	shr    esi,0x5
 804be4f:	c1 e3 04             	shl    ebx,0x4
 804be52:	31 f3                	xor    ebx,esi
 804be54:	01 d3                	add    ebx,edx
 804be56:	81 f3 3a cc 60 bb    	xor    ebx,0xbb60cc3a
 804be5c:	29 d8                	sub    eax,ebx
 804be5e:	89 c3                	mov    ebx,eax
 804be60:	89 c6                	mov    esi,eax
 804be62:	c1 ee 05             	shr    esi,0x5
 804be65:	c1 e3 04             	shl    ebx,0x4
 804be68:	31 f3                	xor    ebx,esi
 804be6a:	01 c3                	add    ebx,eax
 804be6c:	81 f3 63 41 03 3b    	xor    ebx,0x3b034163
 804be72:	29 da                	sub    edx,ebx
 804be74:	89 d3                	mov    ebx,edx
 804be76:	89 d6                	mov    esi,edx
 804be78:	c1 ee 05             	shr    esi,0x5
 804be7b:	c1 e3 04             	shl    ebx,0x4
 804be7e:	31 f3                	xor    ebx,esi
 804be80:	01 d3                	add    ebx,edx
 804be82:	81 f3 63 41 03 3b    	xor    ebx,0x3b034163
 804be88:	29 d8                	sub    eax,ebx
 804be8a:	89 c3                	mov    ebx,eax
 804be8c:	89 c6                	mov    esi,eax
 804be8e:	c1 ee 05             	shr    esi,0x5
 804be91:	c1 e3 04             	shl    ebx,0x4
 804be94:	31 f3                	xor    ebx,esi
 804be96:	01 c3                	add    ebx,eax
 804be98:	81 f3 c8 d8 f1 7e    	xor    ebx,0x7ef1d8c8
 804be9e:	29 da                	sub    edx,ebx
 804bea0:	89 d3                	mov    ebx,edx
 804bea2:	89 d6                	mov    esi,edx
 804bea4:	c1 e3 04             	shl    ebx,0x4
 804bea7:	c1 ee 05             	shr    esi,0x5
 804beaa:	31 f3                	xor    ebx,esi
 804beac:	01 d3                	add    ebx,edx
 804beae:	81 f3 79 c3 1c 89    	xor    ebx,0x891cc379
 804beb4:	29 d8                	sub    eax,ebx
 804beb6:	89 c3                	mov    ebx,eax
 804beb8:	89 c6                	mov    esi,eax
 804beba:	c1 ee 05             	shr    esi,0x5
 804bebd:	c1 e3 04             	shl    ebx,0x4
 804bec0:	31 f3                	xor    ebx,esi
 804bec2:	01 c3                	add    ebx,eax
 804bec4:	81 f3 0f 7f 94 ab    	xor    ebx,0xab947f0f
 804beca:	29 da                	sub    edx,ebx
 804becc:	89 d3                	mov    ebx,edx
 804bece:	89 d6                	mov    esi,edx
 804bed0:	c1 ee 05             	shr    esi,0x5
 804bed3:	c1 e3 04             	shl    ebx,0x4
 804bed6:	31 f3                	xor    ebx,esi
 804bed8:	01 d3                	add    ebx,edx
 804beda:	81 f3 c0 49 e5 ea    	xor    ebx,0xeae549c0
 804bee0:	29 d8                	sub    eax,ebx
 804bee2:	89 c3                	mov    ebx,eax
 804bee4:	89 c6                	mov    esi,eax
 804bee6:	c1 ee 05             	shr    esi,0x5
 804bee9:	c1 e3 04             	shl    ebx,0x4
 804beec:	31 f3                	xor    ebx,esi
 804beee:	01 c3                	add    ebx,eax
 804bef0:	81 f3 07 d0 ad 4c    	xor    ebx,0x4cadd007
 804bef6:	29 da                	sub    edx,ebx
 804bef8:	89 d3                	mov    ebx,edx
 804befa:	89 d6                	mov    esi,edx
 804befc:	c1 ee 05             	shr    esi,0x5
 804beff:	c1 e3 04             	shl    ebx,0x4
 804bf02:	31 f3                	xor    ebx,esi
 804bf04:	01 d3                	add    ebx,edx
 804bf06:	81 f3 56 05 5d 0d    	xor    ebx,0xd5d0556
 804bf0c:	29 d8                	sub    eax,ebx
 804bf0e:	89 c3                	mov    ebx,eax
 804bf10:	89 c6                	mov    esi,eax
 804bf12:	c1 ee 05             	shr    esi,0x5
 804bf15:	c1 e3 04             	shl    ebx,0x4
 804bf18:	31 f3                	xor    ebx,esi
 804bf1a:	01 c3                	add    ebx,eax
 804bf1c:	81 f3 7f 5a 25 c2    	xor    ebx,0xc2255a7f
 804bf22:	29 da                	sub    edx,ebx
 804bf24:	89 d3                	mov    ebx,edx
 804bf26:	89 d6                	mov    esi,edx
 804bf28:	c1 ee 05             	shr    esi,0x5
 804bf2b:	c1 e3 04             	shl    ebx,0x4
 804bf2e:	31 f3                	xor    ebx,esi
 804bf30:	01 d3                	add    ebx,edx
 804bf32:	81 f3 9d 6b 4b a4    	xor    ebx,0xa44b6b9d
 804bf38:	29 d8                	sub    eax,ebx
 804bf3a:	89 c3                	mov    ebx,eax
 804bf3c:	89 c6                	mov    esi,eax
 804bf3e:	c1 ee 05             	shr    esi,0x5
 804bf41:	c1 e3 04             	shl    ebx,0x4
 804bf44:	31 f3                	xor    ebx,esi
 804bf46:	01 c3                	add    ebx,eax
 804bf48:	81 f3 e4 f1 13 06    	xor    ebx,0x613f1e4
 804bf4e:	29 da                	sub    edx,ebx
 804bf50:	89 d3                	mov    ebx,edx
 804bf52:	89 d6                	mov    esi,edx
 804bf54:	c1 ee 05             	shr    esi,0x5
 804bf57:	c1 e3 04             	shl    ebx,0x4
 804bf5a:	31 f3                	xor    ebx,esi
 804bf5c:	01 d3                	add    ebx,edx
 804bf5e:	81 f3 c6 e0 ed 23    	xor    ebx,0x23ede0c6
 804bf64:	29 d8                	sub    eax,ebx
 804bf66:	89 c3                	mov    ebx,eax
 804bf68:	89 c6                	mov    esi,eax
 804bf6a:	c1 ee 05             	shr    esi,0x5
 804bf6d:	c1 e3 04             	shl    ebx,0x4
 804bf70:	31 f3                	xor    ebx,esi
 804bf72:	01 c3                	add    ebx,eax
 804bf74:	81 f3 2b 98 b6 32    	xor    ebx,0x32b6982b
 804bf7a:	29 da                	sub    edx,ebx
 804bf7c:	89 d3                	mov    ebx,edx
 804bf7e:	89 d6                	mov    esi,edx
 804bf80:	c1 ee 05             	shr    esi,0x5
 804bf83:	c1 e3 04             	shl    ebx,0x4
 804bf86:	31 f3                	xor    ebx,esi
 804bf88:	01 d3                	add    ebx,edx
 804bf8a:	81 f3 dc 62 07 72    	xor    ebx,0x720762dc
 804bf90:	29 d8                	sub    eax,ebx
 804bf92:	89 c3                	mov    ebx,eax
 804bf94:	89 c6                	mov    esi,eax
 804bf96:	c1 ee 05             	shr    esi,0x5
 804bf99:	c1 e3 04             	shl    ebx,0x4
 804bf9c:	31 f3                	xor    ebx,esi
 804bf9e:	01 c3                	add    ebx,eax
 804bfa0:	81 f3 23 e9 cf d3    	xor    ebx,0xd3cfe923
 804bfa6:	29 da                	sub    edx,ebx
 804bfa8:	89 d3                	mov    ebx,edx
 804bfaa:	89 d6                	mov    esi,edx
 804bfac:	c1 ee 05             	shr    esi,0x5
 804bfaf:	c1 e3 04             	shl    ebx,0x4
 804bfb2:	31 f3                	xor    ebx,esi
 804bfb4:	01 d3                	add    ebx,edx
 804bfb6:	81 f3 23 e9 cf d3    	xor    ebx,0xd3cfe923
 804bfbc:	29 d8                	sub    eax,ebx
 804bfbe:	89 c3                	mov    ebx,eax
 804bfc0:	89 c6                	mov    esi,eax
 804bfc2:	c1 ee 05             	shr    esi,0x5
 804bfc5:	c1 e3 04             	shl    ebx,0x4
 804bfc8:	31 f3                	xor    ebx,esi
 804bfca:	01 c3                	add    ebx,eax
 804bfcc:	81 f3 9b 73 47 49    	xor    ebx,0x4947739b
 804bfd2:	29 da                	sub    edx,ebx
 804bfd4:	89 d3                	mov    ebx,edx
 804bfd6:	89 d6                	mov    esi,edx
 804bfd8:	c1 ee 05             	shr    esi,0x5
 804bfdb:	c1 e3 04             	shl    ebx,0x4
 804bfde:	31 f3                	xor    ebx,esi
 804bfe0:	01 d3                	add    ebx,edx
 804bfe2:	81 f3 b9 a4 47 f6    	xor    ebx,0xf647a4b9
 804bfe8:	29 d8                	sub    eax,ebx
 804bfea:	89 c3                	mov    ebx,eax
 804bfec:	89 c6                	mov    esi,eax
 804bfee:	c1 ee 05             	shr    esi,0x5
 804bff1:	c1 e3 04             	shl    ebx,0x4
 804bff4:	31 f3                	xor    ebx,esi
 804bff6:	01 c3                	add    ebx,eax
 804bff8:	81 f3 00 0b 36 8d    	xor    ebx,0x8d360b00
 804bffe:	29 da                	sub    edx,ebx
 804c000:	89 d3                	mov    ebx,edx
 804c002:	89 d6                	mov    esi,edx
 804c004:	c1 e3 04             	shl    ebx,0x4
 804c007:	c1 ee 05             	shr    esi,0x5
 804c00a:	31 f3                	xor    ebx,esi
 804c00c:	01 d3                	add    ebx,edx
 804c00e:	81 f3 00 0b 36 8d    	xor    ebx,0x8d360b00
 804c014:	29 d8                	sub    eax,ebx
 804c016:	89 c3                	mov    ebx,eax
 804c018:	89 c6                	mov    esi,eax
 804c01a:	c1 ee 05             	shr    esi,0x5
 804c01d:	c1 e3 04             	shl    ebx,0x4
 804c020:	31 f3                	xor    ebx,esi
 804c022:	01 c3                	add    ebx,eax
 804c024:	81 f3 47 b1 d8 b9    	xor    ebx,0xb9d8b147
 804c02a:	29 da                	sub    edx,ebx
 804c02c:	89 d3                	mov    ebx,edx
 804c02e:	89 d6                	mov    esi,edx
 804c030:	c1 ee 05             	shr    esi,0x5
 804c033:	c1 e3 04             	shl    ebx,0x4
 804c036:	31 f3                	xor    ebx,esi
 804c038:	01 d3                	add    ebx,edx
 804c03a:	81 f3 29 80 d8 0c    	xor    ebx,0xcd88029
 804c040:	29 d8                	sub    eax,ebx
 804c042:	89 c3                	mov    ebx,eax
 804c044:	89 c6                	mov    esi,eax
 804c046:	c1 ee 05             	shr    esi,0x5
 804c049:	c1 e3 04             	shl    ebx,0x4
 804c04c:	31 f3                	xor    ebx,esi
 804c04e:	01 c3                	add    ebx,eax
 804c050:	81 f3 3f 02 f2 5a    	xor    ebx,0x5af2023f
 804c056:	29 da                	sub    edx,ebx
 804c058:	89 d3                	mov    ebx,edx
 804c05a:	89 d6                	mov    esi,edx
 804c05c:	c1 ee 05             	shr    esi,0x5
 804c05f:	c1 e3 04             	shl    ebx,0x4
 804c062:	31 f3                	xor    ebx,esi
 804c064:	01 d3                	add    ebx,edx
 804c066:	81 f3 70 06 a1 6e    	xor    ebx,0x6ea10670
 804c06c:	29 d8                	sub    eax,ebx
 804c06e:	89 c3                	mov    ebx,eax
 804c070:	89 c6                	mov    esi,eax
 804c072:	c1 ee 05             	shr    esi,0x5
 804c075:	c1 e3 04             	shl    ebx,0x4
 804c078:	31 f3                	xor    ebx,esi
 804c07a:	01 c3                	add    ebx,eax
 804c07c:	81 f3 b7 8c 69 d0    	xor    ebx,0xd0698cb7
 804c082:	29 da                	sub    edx,ebx
 804c084:	89 d3                	mov    ebx,edx
 804c086:	89 d6                	mov    esi,edx
 804c088:	c1 ee 05             	shr    esi,0x5
 804c08b:	c1 e3 04             	shl    ebx,0x4
 804c08e:	31 f3                	xor    ebx,esi
 804c090:	01 d3                	add    ebx,edx
 804c092:	81 f3 86 88 ba bc    	xor    ebx,0xbcba8886
 804c098:	29 d8                	sub    eax,ebx
 804c09a:	89 c3                	mov    ebx,eax
 804c09c:	89 c6                	mov    esi,eax
 804c09e:	c1 ee 05             	shr    esi,0x5
 804c0a1:	c1 e3 04             	shl    ebx,0x4
 804c0a4:	31 f3                	xor    ebx,esi
 804c0a6:	01 c3                	add    ebx,eax
 804c0a8:	81 f3 1c 24 58 14    	xor    ebx,0x1458241c
 804c0ae:	29 da                	sub    edx,ebx
 804c0b0:	89 d3                	mov    ebx,edx
 804c0b2:	89 d6                	mov    esi,edx
 804c0b4:	c1 ee 05             	shr    esi,0x5
 804c0b7:	c1 e3 04             	shl    ebx,0x4
 804c0ba:	31 f3                	xor    ebx,esi
 804c0bc:	01 d3                	add    ebx,edx
 804c0be:	81 f3 1c 44 32 df    	xor    ebx,0xdf32441c
 804c0c4:	29 d8                	sub    eax,ebx
 804c0c6:	89 c3                	mov    ebx,eax
 804c0c8:	89 c6                	mov    esi,eax
 804c0ca:	c1 ee 05             	shr    esi,0x5
 804c0cd:	c1 e3 04             	shl    ebx,0x4
 804c0d0:	31 f3                	xor    ebx,esi
 804c0d2:	01 c3                	add    ebx,eax
 804c0d4:	81 f3 63 ca fa 40    	xor    ebx,0x40faca63
 804c0da:	29 da                	sub    edx,ebx
 804c0dc:	89 d3                	mov    ebx,edx
 804c0de:	89 d6                	mov    esi,edx
 804c0e0:	c1 ee 05             	shr    esi,0x5
 804c0e3:	c1 e3 04             	shl    ebx,0x4
 804c0e6:	31 f3                	xor    ebx,esi
 804c0e8:	01 d3                	add    ebx,edx
 804c0ea:	81 f3 63 aa 20 76    	xor    ebx,0x7620aa63
 804c0f0:	29 d8                	sub    eax,ebx
 804c0f2:	89 c3                	mov    ebx,eax
 804c0f4:	89 c6                	mov    esi,eax
 804c0f6:	c1 ee 05             	shr    esi,0x5
 804c0f9:	c1 e3 04             	shl    ebx,0x4
 804c0fc:	31 f3                	xor    ebx,esi
 804c0fe:	01 c3                	add    ebx,eax
 804c100:	81 f3 5b 1b 14 e2    	xor    ebx,0xe2141b5b
 804c106:	29 da                	sub    edx,ebx
 804c108:	89 d3                	mov    ebx,edx
 804c10a:	89 d6                	mov    esi,edx
 804c10c:	c1 ee 05             	shr    esi,0x5
 804c10f:	c1 e3 04             	shl    ebx,0x4
 804c112:	31 f3                	xor    ebx,esi
 804c114:	01 d3                	add    ebx,edx
 804c116:	81 f3 8c 1f c3 f5    	xor    ebx,0xf5c31f8c
 804c11c:	29 d8                	sub    eax,ebx
 804c11e:	89 c3                	mov    ebx,eax
 804c120:	89 c6                	mov    esi,eax
 804c122:	c1 ee 05             	shr    esi,0x5
 804c125:	c1 e3 04             	shl    ebx,0x4
 804c128:	31 f3                	xor    ebx,esi
 804c12a:	01 c3                	add    ebx,eax
 804c12c:	81 f3 d3 a5 8b 57    	xor    ebx,0x578ba5d3
 804c132:	29 da                	sub    edx,ebx
 804c134:	89 d3                	mov    ebx,edx
 804c136:	89 d6                	mov    esi,edx
 804c138:	c1 ee 05             	shr    esi,0x5
 804c13b:	c1 e3 04             	shl    ebx,0x4
 804c13e:	31 f3                	xor    ebx,esi
 804c140:	01 d3                	add    ebx,edx
 804c142:	81 f3 d3 a5 8b 57    	xor    ebx,0x578ba5d3
 804c148:	29 d8                	sub    eax,ebx
 804c14a:	89 c3                	mov    ebx,eax
 804c14c:	89 c6                	mov    esi,eax
 804c14e:	c1 ee 05             	shr    esi,0x5
 804c151:	c1 e3 04             	shl    ebx,0x4
 804c154:	31 f3                	xor    ebx,esi
 804c156:	01 c3                	add    ebx,eax
 804c158:	81 f3 38 3d 7a 9b    	xor    ebx,0x9b7a3d38
 804c15e:	29 da                	sub    edx,ebx
 804c160:	89 d3                	mov    ebx,edx
 804c162:	89 d6                	mov    esi,edx
 804c164:	c1 e3 04             	shl    ebx,0x4
 804c167:	c1 ee 05             	shr    esi,0x5
 804c16a:	31 f3                	xor    ebx,esi
 804c16c:	01 d3                	add    ebx,edx
 804c16e:	81 f3 e9 27 a5 a5    	xor    ebx,0xa5a527e9
 804c174:	29 d8                	sub    eax,ebx
 804c176:	89 c3                	mov    ebx,eax
 804c178:	89 c6                	mov    esi,eax
 804c17a:	c1 ee 05             	shr    esi,0x5
 804c17d:	c1 e3 04             	shl    ebx,0x4
 804c180:	31 f3                	xor    ebx,esi
 804c182:	01 c3                	add    ebx,eax
 804c184:	81 f3 7f e3 1c c8    	xor    ebx,0xc81ce37f
 804c18a:	29 da                	sub    edx,ebx
 804c18c:	89 d3                	mov    ebx,edx
 804c18e:	89 d6                	mov    esi,edx
 804c190:	c1 ee 05             	shr    esi,0x5
 804c193:	c1 e3 04             	shl    ebx,0x4
 804c196:	31 f3                	xor    ebx,esi
 804c198:	01 d3                	add    ebx,edx
 804c19a:	81 f3 7f e3 1c c8    	xor    ebx,0xc81ce37f
 804c1a0:	29 d8                	sub    eax,ebx
 804c1a2:	89 c3                	mov    ebx,eax
 804c1a4:	89 c6                	mov    esi,eax
 804c1a6:	c1 ee 05             	shr    esi,0x5
 804c1a9:	c1 e3 04             	shl    ebx,0x4
 804c1ac:	31 f3                	xor    ebx,esi
 804c1ae:	01 c3                	add    ebx,eax
 804c1b0:	81 f3 77 34 36 69    	xor    ebx,0x69363477
 804c1b6:	29 da                	sub    edx,ebx
 804c1b8:	89 d3                	mov    ebx,edx
 804c1ba:	89 d6                	mov    esi,edx
 804c1bc:	c1 ee 05             	shr    esi,0x5
 804c1bf:	c1 e3 04             	shl    ebx,0x4
 804c1c2:	31 f3                	xor    ebx,esi
 804c1c4:	01 d3                	add    ebx,edx
 804c1c6:	81 f3 c6 49 0b 5f    	xor    ebx,0x5f0b49c6
 804c1cc:	29 d8                	sub    eax,ebx
 804c1ce:	89 c3                	mov    ebx,eax
 804c1d0:	89 c6                	mov    esi,eax
 804c1d2:	89 41 04             	mov    DWORD PTR [ecx+0x4],eax
 804c1d5:	c1 ee 05             	shr    esi,0x5
 804c1d8:	c1 e3 04             	shl    ebx,0x4
 804c1db:	31 f3                	xor    ebx,esi
 804c1dd:	01 c3                	add    ebx,eax
 804c1df:	81 f3 ef be ad de    	xor    ebx,0xdeadbeef
 804c1e5:	29 da                	sub    edx,ebx
 804c1e7:	89 11                	mov    DWORD PTR [ecx],edx
 804c1e9:	5b                   	pop    ebx
 804c1ea:	5e                   	pop    esi
 804c1eb:	5d                   	pop    ebp
 804c1ec:	c3                   	ret    

Disassembly of section .data:

0804d1f0 <msg1>:
 804d1f0:	65 6e                	outs   dx,BYTE PTR gs:[esi]
 804d1f2:	74 65                	je     804d259 <_end+0x29>
 804d1f4:	72 20                	jb     804d216 <inbuf+0xe>
 804d1f6:	6b 65 79 3a          	imul   esp,DWORD PTR [ebp+0x79],0x3a
 804d1fa:	20 00                	and    BYTE PTR [eax],al

0804d1fc <msg2>:
 804d1fc:	70 61                	jo     804d25f <_end+0x2f>
 804d1fe:	73 73                	jae    804d273 <_end+0x43>
 804d200:	0a               	or     ah,BYTE PTR [esi+0x61]

0804d201 <msg3>:
 804d201:	66 61                	popaw  
 804d203:	69                   	.byte 0x69
 804d204:	6c                   	ins    BYTE PTR es:[edi],dx
 804d205:	0a                   	.byte 0xa

Disassembly of section .bss:

0804d208 <inbuf>:
	...

0804d228 <v0>:
 804d228:	00 00                	add    BYTE PTR [eax],al
	...

0804d22c <v1>:
 804d22c:	00 00                	add    BYTE PTR [eax],al
	...
